(dp0
I0
(dp1
S'endDemandResults'
p2
(lp3
(lp4
I14875
aI0
aa(lp5
I14671
aI0
aa(lp6
I15112
aI0
aa(lp7
I17537
aI0
aa(lp8
I17711
aI0
aa(lp9
I17561
aI0
aa(lp10
I17518
aI0
aa(lp11
I17967
aI0
aa(lp12
I17633
aI0
aa(lp13
I17750
aI0
aa(lp14
I17485
aI0
aa(lp15
I17724
aI0
aa(lp16
I17827
aI1
aa(lp17
I14599
aI0
aa(lp18
I14442
aI0
aa(lp19
I14463
aI0
aa(lp20
I16824
aI0
aa(lp21
I17103
aI0
aa(lp22
I16716
aI0
aa(lp23
I16987
aI0
aa(lp24
I16777
aI0
aa(lp25
I17115
aI0
aa(lp26
I16677
aI0
aa(lp27
I16981
aI0
aa(lp28
I16774
aI0
aa(lp29
I16878
aI0
aa(lp30
I17059
aI0
aa(lp31
I16629
aI0
aa(lp32
I16556
aI0
aa(lp33
I16534
aI0
aa(lp34
I16402
aI0
aa(lp35
I15646
aI0
aa(lp36
I15503
aI0
aa(lp37
I18515
aI0
aa(lp38
I18311
aI0
aa(lp39
I18458
aI0
aa(lp40
I18309
aI0
aa(lp41
I18418
aI1
aa(lp42
I18226
aI0
aa(lp43
I18447
aI0
aa(lp44
I18426
aI0
aa(lp45
I17939
aI715
aa(lp46
I17919
aI723
aa(lp47
I17863
aI688
aa(lp48
I17838
aI751
aa(lp49
I17765
aI763
aa(lp50
I17839
aI781
aa(lp51
I18174
aI0
aa(lp52
I18022
aI0
aa(lp53
I18110
aI0
aa(lp54
I18211
aI0
aa(lp55
I17445
aI0
aa(lp56
I17398
aI0
aa(lp57
I17327
aI0
aa(lp58
I17458
aI0
aa(lp59
I17445
aI0
aa(lp60
I17661
aI0
aa(lp61
I17556
aI0
aa(lp62
I17819
aI0
aa(lp63
I17192
aI0
aa(lp64
I17726
aI0
aa(lp65
I17603
aI0
aa(lp66
I17152
aI0
aa(lp67
I17469
aI0
aa(lp68
I17345
aI0
aa(lp69
I17710
aI0
aa(lp70
I17488
aI0
aa(lp71
I17464
aI0
aa(lp72
I17451
aI0
aa(lp73
I17632
aI0
aa(lp74
I17488
aI0
aa(lp75
I17670
aI0
aa(lp76
I17429
aI0
aa(lp77
I17581
aI0
aa(lp78
I17720
aI0
aa(lp79
I17498
aI0
aa(lp80
I17546
aI3
aa(lp81
I17382
aI0
aa(lp82
I17592
aI0
aa(lp83
I17400
aI0
aa(lp84
I17725
aI0
aa(lp85
I17279
aI0
aa(lp86
I17541
aI0
aa(lp87
I17240
aI0
aa(lp88
I17537
aI0
aa(lp89
I17704
aI0
aa(lp90
I17548
aI0
aa(lp91
I17810
aI0
aa(lp92
I17113
aI0
aa(lp93
I17273
aI0
aa(lp94
I17501
aI0
aa(lp95
I17298
aI0
aa(lp96
I17599
aI0
aa(lp97
I17671
aI0
aa(lp98
I17467
aI0
aa(lp99
I17567
aI0
aa(lp100
I17515
aI0
aa(lp101
I17234
aI0
aa(lp102
I17378
aI0
aa(lp103
I17173
aI1553
aa(lp104
I17520
aI1496
aa(lp105
I17652
aI0
aa(lp106
I17715
aI0
aa(lp107
I17828
aI0
aa(lp108
I18220
aI0
aa(lp109
I18220
aI0
aasS'intFalseEstimates'
p110
(lp111
F0.0
aF0.0
aF0.0
aF0.0
aF0.0
aF0.0
aF0.0
aF0.0
aF0.0
aF0.0
asS'testResults'
p112
(lp113
(lp114
I36
aI48
aI1
a(lp115
(lp116
I1
aI191
aaaa(lp117
I37
aI49
aI1
a(lp118
(lp119
I1
aI95
aaaa(lp120
I38
aI50
aI1
a(lp121
(lp122
I1
aI2
aa(lp123
I8
aI1413
aaaa(lp124
I39
aI51
aI0
a(lp125
(lp126
I3
aI1404
aaaa(lp127
I40
aI52
aI0
a(lp128
(lp129
I11
aI1361
aaaa(lp130
I41
aI53
aI0
a(lp131
(lp132
I10
aI1376
aaaa(lp133
I42
aI54
aI0
a(lp134
(lp135
I7
aI1391
aaaa(lp136
I43
aI55
aI0
a(lp137
(lp138
I4
aI1329
aaaa(lp139
I44
aI56
aI0
a(lp140
(lp141
I6
aI1224
aaaa(lp142
I45
aI57
aI1
a(lp143
(lp144
I8
aI1170
aaaa(lp145
I46
aI58
aI0
a(lp146
(lp147
I2
aI1066
aaaa(lp148
I47
aI59
aI0
a(lp149
(lp150
I2
aI973
aaaa(lp151
I48
aI60
aI0
a(lp152
(lp153
I2
aI977
aaaa(lp154
I49
aI61
aI0
a(lp155
(lp156
I6
aI855
aaaa(lp157
I50
aI62
aI0
a(lp158
(lp159
I6
aI880
aaaa(lp160
I51
aI63
aI0
a(lp161
(lp162
I5
aI422
aa(lp163
I8
aI374
aaaa(lp164
I52
aI64
aI1
a(lp165
(lp166
I1
aI814
aaaa(lp167
I53
aI65
aI0
a(lp168
(lp169
I6
aI659
aaaa(lp170
I54
aI66
aI0
a(lp171
(lp172
I7
aI674
aaaa(lp173
I55
aI67
aI0
a(lp174
(lp175
I3
aI587
aaaa(lp176
I56
aI68
aI0
a(lp177
(lp178
I3
aI541
aaaa(lp179
I57
aI69
aI0
a(lp180
(lp181
I11
aI608
aaaa(lp182
I58
aI70
aI0
a(lp183
(lp184
I9
aI523
aaaa(lp185
I59
aI71
aI0
a(lp186
(lp187
I7
aI6
aa(lp188
I9
aI504
aaaa(lp189
I60
aI72
aI0
a(lp190
(lp191
I9
aI328
aaaa(lp192
I61
aI73
aI0
a(lp193
(lp194
I10
aI365
aaaa(lp195
I62
aI74
aI0
a(lp196
(lp197
I9
aI237
aa(lp198
I10
aI202
aaaa(lp199
I63
aI75
aI0
a(lp200
(lp201
I9
aI330
aaaa(lp202
I64
aI76
aI0
a(lp203
(lp204
I7
aI238
aaaa(lp205
I65
aI77
aI0
a(lp206
(lp207
I10
aI153
aaaa(lp208
I66
aI78
aI0
a(lp209
(lp210
I6
aI154
aaaa(lp211
I67
aI79
aI0
a(lp212
(lp213
I2
aI64
aaaa(lp214
I68
aI80
aI0
a(lp215
(lp216
I1
aI90
aaaa(lp217
I69
aI81
aI0
a(lp218
(lp219
I5
aI1215
aaaa(lp220
I70
aI82
aI0
a(lp221
(lp222
I7
aI1241
aaaa(lp223
I71
aI83
aI0
a(lp224
(lp225
I4
aI1180
aaaa(lp226
I72
aI84
aI0
a(lp227
(lp228
I4
aI1271
aaaa(lp229
I73
aI85
aI0
a(lp230
(lp231
I10
aI1205
aaaa(lp232
I74
aI86
aI0
a(lp233
(lp234
I6
aI1059
aaaa(lp235
I75
aI87
aI0
a(lp236
(lp237
I11
aI1134
aaaa(lp238
I76
aI88
aI0
a(lp239
(lp240
I9
aI973
aaaa(lp241
I77
aI89
aI0
a(lp242
(lp243
I10
aI993
aaaa(lp244
I78
aI90
aI0
a(lp245
(lp246
I10
aI930
aaaa(lp247
I79
aI91
aI0
a(lp248
(lp249
I6
aI888
aaaa(lp250
I80
aI92
aI0
a(lp251
(lp252
I3
aI830
aaaa(lp253
I81
aI93
aI0
a(lp254
(lp255
I2
aI793
aaaa(lp256
I82
aI94
aI0
a(lp257
(lp258
I3
aI747
aaaa(lp259
I83
aI95
aI0
a(lp260
(lp261
I4
aI743
aaaa(lp262
I84
aI96
aI0
a(lp263
(lp264
I6
aI636
aaaa(lp265
I85
aI97
aI0
a(lp266
(lp267
I7
aI573
aaaa(lp268
I86
aI98
aI0
a(lp269
(lp270
I4
aI495
aaaa(lp271
I87
aI99
aI0
a(lp272
(lp273
I9
aI444
aaaa(lp274
I88
aI100
aI0
a(lp275
(lp276
I9
aI572
aaaa(lp277
I89
aI101
aI0
a(lp278
(lp279
I9
aI504
aaaa(lp280
I90
aI102
aI1
a(lp281
(lp282
I4
aI384
aaaa(lp283
I91
aI103
aI0
a(lp284
(lp285
I5
aI316
aaaa(lp286
I92
aI104
aI0
a(lp287
(lp288
I8
aI215
aaaa(lp289
I93
aI105
aI0
a(lp290
(lp291
I7
aI212
aaaa(lp292
I94
aI106
aI0
a(lp293
(lp294
I5
aI132
aaaa(lp295
I95
aI107
aI1
a(lp296
(lp297
I8
aI147
aaaa(lp298
I96
aI108
aI0
a(lp299
(lp300
I6
aI101
aaaa(lp301
I97
aI109
aI0
a(lp302
(lp303
I7
aI213
aaaa(lp304
I98
aI110
aI1
a(lp305
(lp306
I8
aI67
aaaa(lp307
I99
aI111
aI0
a(lp308
(lp309
I2
aI294
aaaa(lp310
I100
aI112
aI0
a(lp311
(lp312
I2
aI126
aaaa(lp313
I101
aI113
aI0
a(lp314
(lp315
I11
aI3
aa(lp316
I11
aI1364
aaaa(lp317
I102
aI114
aI0
a(lp318
(lp319
I2
aI1266
aaaa(lp320
I103
aI115
aI1
a(lp321
(lp322
I8
aI1191
aaaa(lp323
I104
aI116
aI0
a(lp324
(lp325
I4
aI372
aa(lp326
I4
aI763
aaaa(lp327
I105
aI117
aI0
a(lp328
(lp329
I3
aI1120
aaaa(lp330
I106
aI12
aI0
a(lp331
(lp332
I7
aI847
aaaa(lp333
I107
aI13
aI0
a(lp334
(lp335
I11
aI791
aaaa(lp336
I108
aI14
aI0
a(lp337
(lp338
I10
aI730
aaaa(lp339
I109
aI15
aI0
a(lp340
(lp341
I3
aI876
aaaa(lp342
I110
aI16
aI0
a(lp343
(lp344
I6
aI838
aaaa(lp345
I111
aI17
aI0
a(lp346
(lp347
I11
aI770
aaaa(lp348
I112
aI18
aI0
a(lp349
(lp350
I4
aI755
aaaa(lp351
I113
aI19
aI0
a(lp352
(lp353
I11
aI683
aaaa(lp354
I114
aI20
aI0
a(lp355
(lp356
I4
aI719
aaaa(lp357
I115
aI21
aI0
a(lp358
(lp359
I5
aI651
aaaa(lp360
I116
aI22
aI0
a(lp361
(lp362
I10
aI696
aaaa(lp363
I117
aI23
aI0
a(lp364
(lp365
I2
aI586
aaaa(lp366
I118
aI24
aI0
a(lp367
(lp368
I3
aI490
aaaa(lp369
I119
aI25
aI0
a(lp370
(lp371
I11
aI410
aaaa(lp372
I120
aI26
aI0
a(lp373
(lp374
I9
aI418
aaaa(lp375
I121
aI27
aI0
a(lp376
(lp377
I5
aI352
aaaa(lp378
I122
aI28
aI0
a(lp379
(lp380
I8
aI315
aaaa(lp381
I123
aI29
aI0
a(lp382
(lp383
I5
aI114
aaaa(lp384
I124
aI30
aI0
a(lp385
(lp386
I6
aI168
aaaa(lp387
I125
aI31
aI0
a(lp388
(lp389
I4
aI269
aaaa(lp390
I126
aI32
aI0
a(lp391
(lp392
I11
aI210
aaaa(lp393
I127
aI33
aI0
a(lp394
(lp395
I11
aI1289
aaaa(lp396
I128
aI34
aI0
a(lp397
(lp398
I5
aI52
aaaa(lp399
I129
aI35
aI0
a(lp400
(lp401
I7
aI33
aaaa(lp402
I130
aI36
aI0
a(lp403
(lp404
I2
aI59
aaaa(lp405
I131
aI37
aI0
a(lp406
(lp407
I2
aI1230
aaaa(lp408
I132
aI38
aI0
a(lp409
(lp410
I3
aI1081
aaaa(lp411
I133
aI39
aI0
a(lp412
(lp413
I6
aI1056
aaaa(lp414
I134
aI40
aI0
a(lp415
(lp416
I2
aI1113
aaaa(lp417
I135
aI41
aI0
a(lp418
(lp419
I10
aI1109
aaaa(lp420
I136
aI42
aI0
a(lp421
(lp422
I5
aI1078
aaaa(lp423
I137
aI43
aI0
a(lp424
(lp425
I9
aI791
aaaa(lp426
I138
aI44
aI0
a(lp427
(lp428
I11
aI812
aaaa(lp429
I139
aI45
aI0
a(lp430
(lp431
I9
aI931
aaaa(lp432
I140
aI46
aI0
a(lp433
(lp434
I5
aI870
aaaa(lp435
I141
aI47
aI0
a(lp436
(lp437
I7
aI861
aaaa(lp438
I142
aI48
aI0
a(lp439
(lp440
I2
aI949
aaaa(lp441
I143
aI49
aI0
a(lp442
(lp443
I10
aI693
aaaa(lp444
I144
aI50
aI0
a(lp445
(lp446
I8
aI611
aaaa(lp447
I145
aI51
aI0
a(lp448
(lp449
I3
aI612
aaaa(lp450
I146
aI52
aI0
a(lp451
(lp452
I11
aI636
aaaa(lp453
I147
aI53
aI0
a(lp454
(lp455
I9
aI450
aa(lp456
I8
aI351
aaaa(lp457
I148
aI54
aI0
a(lp458
(lp459
I5
aI734
aaaa(lp460
I149
aI55
aI0
a(lp461
(lp462
I4
aI784
aaaa(lp463
I150
aI56
aI0
a(lp464
(lp465
I6
aI725
aaaa(lp466
I151
aI57
aI1
a(lp467
(lp468
I8
aI613
aaaa(lp469
I152
aI58
aI0
a(lp470
(lp471
I9
aI434
aaaa(lp472
I153
aI59
aI0
a(lp473
(lp474
I2
aI230
aaaa(lp475
I154
aI60
aI0
a(lp476
(lp477
I2
aI194
aaaa(lp478
I155
aI61
aI0
a(lp479
(lp480
I6
aI124
aaaa(lp481
I156
aI62
aI0
a(lp482
(lp483
I6
aI81
aaaa(lp484
I157
aI63
aI0
a(lp485
(lp486
I3
aI68
aaaa(lp487
I158
aI64
aI1
a(lp488
(lp489
I1
aI136
aaaa(lp490
I159
aI65
aI1
a(lp491
(lp492
I8
aI145
aaaa(lp493
I160
aI66
aI0
a(lp494
(lp495
I7
aI1251
aaaa(lp496
I161
aI67
aI0
a(lp497
(lp498
I3
aI1226
aaaa(lp499
I162
aI68
aI0
a(lp500
(lp501
I3
aI1101
aaaa(lp502
I163
aI69
aI0
a(lp503
(lp504
I11
aI1207
aaaa(lp505
I164
aI70
aI0
a(lp506
(lp507
I9
aI1063
aaaa(lp508
I165
aI71
aI0
a(lp509
(lp510
I7
aI1170
aaaa(lp511
I166
aI72
aI1
a(lp512
(lp513
I9
aI893
aaaa(lp514
I167
aI73
aI0
a(lp515
(lp516
I5
aI406
aa(lp517
I10
aI593
aaaa(lp518
I168
aI74
aI0
a(lp519
(lp520
I11
aI1033
aa(lp521
I9
aI39
aaaa(lp522
I169
aI75
aI0
a(lp523
(lp524
I9
aI750
aaaa(lp525
I170
aI76
aI0
a(lp526
(lp527
I7
aI822
aaaa(lp528
I171
aI77
aI0
a(lp529
(lp530
I10
aI764
aaaa(lp531
I172
aI78
aI0
a(lp532
(lp533
I7
aI812
aaaa(lp534
I173
aI79
aI0
a(lp535
(lp536
I2
aI714
aaaa(lp537
I174
aI80
aI1
a(lp538
(lp539
I10
aI722
aaaa(lp540
I175
aI81
aI0
a(lp541
(lp542
I5
aI512
aaaa(lp543
I176
aI82
aI0
a(lp544
(lp545
I7
aI603
aaaa(lp546
I177
aI83
aI0
a(lp547
(lp548
I4
aI430
aaaa(lp549
I178
aI84
aI0
a(lp550
(lp551
I4
aI627
aaaa(lp552
I179
aI85
aI1
a(lp553
(lp554
I10
aI344
aaaa(lp555
I180
aI86
aI0
a(lp556
(lp557
I6
aI313
aaaa(lp558
I181
aI87
aI0
a(lp559
(lp560
I3
aI297
aaaa(lp561
I182
aI88
aI0
a(lp562
(lp563
I9
aI242
aaaa(lp564
I183
aI89
aI0
a(lp565
(lp566
I10
aI287
aaaa(lp567
I184
aI90
aI0
a(lp568
(lp569
I10
aI167
aaaa(lp570
I185
aI91
aI0
a(lp571
(lp572
I2
aI181
aaaa(lp573
I186
aI92
aI0
a(lp574
(lp575
I5
aI1341
aaaa(lp576
I187
aI93
aI0
a(lp577
(lp578
I2
aI159
aaaa(lp579
I188
aI94
aI0
a(lp580
(lp581
I3
aI1333
aaaa(lp582
I189
aI95
aI0
a(lp583
(lp584
I10
aI83
aaaa(lp585
I190
aI96
aI0
a(lp586
(lp587
I6
aI1305
aaaa(lp588
I191
aI97
aI0
a(lp589
(lp590
I7
aI1205
aaaa(lp591
I192
aI98
aI0
a(lp592
(lp593
I4
aI1097
aaaa(lp594
I193
aI99
aI0
a(lp595
(lp596
I9
aI977
aaaa(lp597
I194
aI100
aI0
a(lp598
(lp599
I9
aI1296
aaaa(lp600
I195
aI101
aI0
a(lp601
(lp602
I9
aI1198
aaaa(lp603
I196
aI102
aI0
a(lp604
(lp605
I4
aI1130
aaaa(lp606
I197
aI103
aI0
a(lp607
(lp608
I5
aI525
aa(lp609
I6
aI598
aaaa(lp610
I198
aI104
aI0
a(lp611
(lp612
I8
aI847
aaaa(lp613
I199
aI105
aI1
a(lp614
(lp615
I7
aI829
aaaa(lp616
I200
aI106
aI0
a(lp617
(lp618
I5
aI813
aaaa(lp619
I201
aI107
aI0
a(lp620
(lp621
I8
aI759
aaaa(lp622
I202
aI108
aI0
a(lp623
(lp624
I6
aI728
aaaa(lp625
I203
aI109
aI0
a(lp626
(lp627
I7
aI913
aa(lp628
I9
aI9
aaaa(lp629
I204
aI110
aI0
a(lp630
(lp631
I8
aI769
aaaa(lp632
I205
aI111
aI0
a(lp633
(lp634
I2
aI1409
aaaa(lp635
I206
aI112
aI0
a(lp636
(lp637
I4
aI1138
aaaa(lp638
I207
aI113
aI0
a(lp639
(lp640
I11
aI648
aaaa(lp641
I208
aI114
aI0
a(lp642
(lp643
I2
aI587
aaaa(lp644
I209
aI115
aI0
a(lp645
(lp646
I8
aI677
aaaa(lp647
I210
aI116
aI0
a(lp648
(lp649
I4
aI274
aaaa(lp650
I211
aI117
aI0
a(lp651
(lp652
I3
aI382
aaaa(lp653
I212
aI12
aI0
a(lp654
(lp655
I7
aI181
aaaa(lp656
I213
aI13
aI0
a(lp657
(lp658
I11
aI295
aaaa(lp659
I214
aI14
aI0
a(lp660
(lp661
I10
aI59
aaaa(lp662
I215
aI15
aI1
a(lp663
(lp664
I3
aI204
aaaa(lp665
I216
aI16
aI0
a(lp666
(lp667
I6
aI173
aaaa(lp668
I217
aI17
aI0
a(lp669
(lp670
I11
aI198
aaaa(lp671
I218
aI18
aI0
a(lp672
(lp673
I4
aI166
aaaa(lp674
I219
aI19
aI0
a(lp675
(lp676
I11
aI1236
aaaa(lp677
I220
aI20
aI0
a(lp678
(lp679
I4
aI7
aa(lp680
I4
aI1362
aaaa(lp681
I221
aI21
aI0
a(lp682
(lp683
I5
aI1194
aaaa(lp684
I222
aI22
aI0
a(lp685
(lp686
I3
aI581
aa(lp687
I10
aI760
aaaa(lp688
I223
aI23
aI0
a(lp689
(lp690
I2
aI1104
aaaa(lp691
I224
aI24
aI0
a(lp692
(lp693
I10
aI1203
aaaa(lp694
I225
aI25
aI0
a(lp695
(lp696
I11
aI1011
aaaa(lp697
I226
aI26
aI0
a(lp698
(lp699
I9
aI1008
aaaa(lp700
I227
aI27
aI0
a(lp701
(lp702
I8
aI917
aaaa(lp703
I228
aI28
aI0
a(lp704
(lp705
I8
aI846
aaaa(lp706
I229
aI29
aI0
a(lp707
(lp708
I5
aI687
aaaa(lp709
I230
aI30
aI0
a(lp710
(lp711
I6
aI882
aaaa(lp712
I231
aI31
aI0
a(lp713
(lp714
I4
aI772
aaaa(lp715
I232
aI32
aI0
a(lp716
(lp717
I11
aI825
aaaa(lp718
I233
aI33
aI0
a(lp719
(lp720
I11
aI557
aaaa(lp721
I234
aI34
aI1
a(lp722
(lp723
I5
aI123
aa(lp724
I7
aI593
aaaa(lp725
I235
aI35
aI0
a(lp726
(lp727
I7
aI538
aaaa(lp728
I236
aI36
aI0
a(lp729
(lp730
I2
aI623
aaaa(lp731
I237
aI37
aI0
a(lp732
(lp733
I8
aI646
aaaa(lp734
I238
aI38
aI0
a(lp735
(lp736
I3
aI416
aaaa(lp737
I239
aI39
aI0
a(lp738
(lp739
I6
aI410
aaaa(lp740
I240
aI40
aI0
a(lp741
(lp742
I8
aI416
aaaa(lp743
I241
aI41
aI0
a(lp744
(lp745
I10
aI461
aaaa(lp746
I242
aI42
aI0
a(lp747
(lp748
I5
aI408
aaaa(lp749
I243
aI43
aI0
a(lp750
(lp751
I9
aI74
aa(lp752
I9
aI1182
aaaa(lp753
I244
aI44
aI0
a(lp754
(lp755
I11
aI96
aa(lp756
I11
aI1182
aaaa(lp757
I245
aI45
aI0
a(lp758
(lp759
I9
aI166
aaaa(lp760
I246
aI46
aI0
a(lp761
(lp762
I5
aI139
aaaa(lp763
I247
aI47
aI0
a(lp764
(lp765
I7
aI97
aaaa(lp766
I248
aI48
aI0
a(lp767
(lp768
I3
aI129
aaaa(lp769
I249
aI49
aI0
a(lp770
(lp771
I10
aI1356
aaaa(lp772
I250
aI50
aI0
a(lp773
(lp774
I8
aI38
aaaa(lp775
I251
aI51
aI0
a(lp776
(lp777
I3
aI1320
aaaa(lp778
I252
aI52
aI0
a(lp779
(lp780
I11
aI1287
aaaa(lp781
I253
aI53
aI1
a(lp782
(lp783
I10
aI293
aaaa(lp784
I254
aI54
aI0
a(lp785
(lp786
I5
aI95
aaaa(lp787
I255
aI55
aI0
a(lp788
(lp789
I4
aI121
aaaa(lp790
I256
aI56
aI0
a(lp791
(lp792
I6
aI14
aaaa(lp793
I257
aI57
aI0
a(lp794
(lp795
I8
aI72
aaaa(lp796
I258
aI58
aI0
a(lp797
(lp798
I2
aI1337
aaaa(lp799
I259
aI59
aI0
a(lp800
(lp801
I2
aI959
aaaa(lp802
I260
aI60
aI0
a(lp803
(lp804
I2
aI896
aaaa(lp805
I261
aI61
aI0
a(lp806
(lp807
I6
aI722
aaaa(lp808
I262
aI62
aI0
a(lp809
(lp810
I6
aI713
aaaa(lp811
I263
aI63
aI0
a(lp812
(lp813
I5
aI664
aaaa(lp814
I264
aI64
aI0
a(lp815
(lp816
I6
aI93
aa(lp817
I1
aI663
aaaa(lp818
I265
aI65
aI1
a(lp819
(lp820
I8
aI140
aa(lp821
I4
aI644
aaaa(lp822
I266
aI66
aI0
a(lp823
(lp824
I7
aI609
aaaa(lp825
I267
aI67
aI0
a(lp826
(lp827
I3
aI431
aaaa(lp828
I268
aI68
aI0
a(lp829
(lp830
I3
aI391
aaaa(lp831
I269
aI69
aI0
a(lp832
(lp833
I11
aI440
aaaa(lp834
I270
aI70
aI0
a(lp835
(lp836
I9
aI176
aaaa(lp837
I271
aI71
aI0
a(lp838
(lp839
I9
aI628
aaaa(lp840
I272
aI72
aI0
a(lp841
(lp842
I9
aI88
aaaa(lp843
I273
aI73
aI0
a(lp844
(lp845
I5
aI164
aaaa(lp846
I274
aI74
aI0
a(lp847
(lp848
I11
aI444
aaaa(lp849
I275
aI75
aI0
a(lp850
(lp851
I9
aI136
aaaa(lp852
I276
aI76
aI0
a(lp853
(lp854
I7
aI207
aaaa(lp855
I277
aI77
aI0
a(lp856
(lp857
I10
aI1253
aaaa(lp858
I278
aI78
aI0
a(lp859
(lp860
I7
aI133
aaaa(lp861
I279
aI79
aI0
a(lp862
(lp863
I2
aI1313
aaaa(lp864
I280
aI80
aI0
a(lp865
(lp866
I10
aI38
aaaa(lp867
I281
aI81
aI0
a(lp868
(lp869
I5
aI1110
aaaa(lp870
I282
aI82
aI0
a(lp871
(lp872
I7
aI1166
aaaa(lp873
I283
aI83
aI0
a(lp874
(lp875
I4
aI1040
aaaa(lp876
I284
aI84
aI0
a(lp877
(lp878
I4
aI1220
aaaa(lp879
I285
aI85
aI0
a(lp880
(lp881
I10
aI961
aaaa(lp882
I286
aI86
aI0
a(lp883
(lp884
I6
aI963
aaaa(lp885
I287
aI87
aI0
a(lp886
(lp887
I3
aI947
aaaa(lp888
I288
aI88
aI0
a(lp889
(lp890
I9
aI921
aaaa(lp891
I289
aI89
aI0
a(lp892
(lp893
I10
aI991
aaaa(lp894
I290
aI90
aI0
a(lp895
(lp896
I10
aI730
aaaa(lp897
I291
aI91
aI0
a(lp898
(lp899
I6
aI784
aaaa(lp900
I292
aI92
aI0
a(lp901
(lp902
I5
aI588
aaaa(lp903
I293
aI93
aI0
a(lp904
(lp905
I2
aI849
aaaa(lp906
I294
aI94
aI0
a(lp907
(lp908
I3
aI667
aaaa(lp909
I295
aI95
aI0
a(lp910
(lp911
I4
aI747
aaaa(lp912
I296
aI96
aI0
a(lp913
(lp914
I6
aI501
aaaa(lp915
I297
aI97
aI0
a(lp916
(lp917
I7
aI339
aaaa(lp918
I298
aI98
aI0
a(lp919
(lp920
I4
aI442
aaaa(lp921
I299
aI99
aI0
a(lp922
(lp923
I9
aI287
aaaa(lp924
I300
aI100
aI0
a(lp925
(lp926
I9
aI705
aaaa(lp927
I301
aI101
aI0
a(lp928
(lp929
I9
aI563
aaaa(lp930
I302
aI102
aI0
a(lp931
(lp932
I4
aI387
aaaa(lp933
I303
aI103
aI0
a(lp934
(lp935
I2
aI388
aaaa(lp936
I304
aI104
aI0
a(lp937
(lp938
I8
aI221
aaaa(lp939
I305
aI105
aI0
a(lp940
(lp941
I7
aI59
aaaa(lp942
I306
aI106
aI0
a(lp943
(lp944
I5
aI132
aaaa(lp945
I307
aI107
aI0
a(lp946
(lp947
I8
aI20
aaaa(lp948
I308
aI108
aI0
a(lp949
(lp950
I6
aI24
aaaa(lp951
I309
aI109
aI0
a(lp952
(lp953
I9
aI252
aaaa(lp954
I310
aI110
aI0
a(lp955
(lp956
I8
aI85
aaaa(lp957
I311
aI111
aI0
a(lp958
(lp959
I2
aI1277
aaaa(lp960
I312
aI112
aI0
a(lp961
(lp962
I2
aI865
aaaa(lp963
I313
aI113
aI0
a(lp964
(lp965
I5
aI1261
aaaa(lp966
I314
aI114
aI0
a(lp967
(lp968
I2
aI1106
aaaa(lp969
I315
aI115
aI1
a(lp970
(lp971
I8
aI1332
aaaa(lp972
I316
aI116
aI0
a(lp973
(lp974
I4
aI885
aaaa(lp975
I317
aI117
aI1
a(lp976
(lp977
I3
aI988
aaaa(lp978
I318
aI12
aI0
a(lp979
(lp980
I7
aI788
aaaa(lp981
I319
aI13
aI0
a(lp982
(lp983
I11
aI984
aaaa(lp984
I320
aI14
aI0
a(lp985
(lp986
I10
aI567
aaaa(lp987
I321
aI15
aI0
a(lp988
(lp989
I3
aI817
aaaa(lp990
I322
aI16
aI0
a(lp991
(lp992
I6
aI853
aaaa(lp993
I323
aI17
aI0
a(lp994
(lp995
I11
aI779
aaaa(lp996
I324
aI18
aI0
a(lp997
(lp998
I4
aI852
aaaa(lp999
I325
aI19
aI0
a(lp1000
(lp1001
I11
aI359
aaaa(lp1002
I326
aI20
aI0
a(lp1003
(lp1004
I4
aI678
aaaa(lp1005
I327
aI21
aI0
a(lp1006
(lp1007
I5
aI533
aaaa(lp1008
I328
aI22
aI0
a(lp1009
(lp1010
I10
aI649
aaaa(lp1011
I329
aI23
aI0
a(lp1012
(lp1013
I2
aI444
aaaa(lp1014
I330
aI24
aI0
a(lp1015
(lp1016
I3
aI304
aaaa(lp1017
I331
aI25
aI0
a(lp1018
(lp1019
I11
aI490
aaaa(lp1020
I332
aI26
aI0
a(lp1021
(lp1022
I9
aI578
aaaa(lp1023
I333
aI27
aI1
a(lp1024
(lp1025
I5
aI427
aaaa(lp1026
I334
aI28
aI1
a(lp1027
(lp1028
I8
aI141
aaaa(lp1029
I335
aI29
aI0
a(lp1030
(lp1031
I5
aI1194
aaaa(lp1032
I336
aI30
aI0
a(lp1033
(lp1034
I6
aI160
aaaa(lp1035
I337
aI31
aI0
a(lp1036
(lp1037
I4
aI1252
aaaa(lp1038
I338
aI32
aI0
a(lp1039
(lp1040
I11
aI77
aaaa(lp1041
I339
aI33
aI0
a(lp1042
(lp1043
I11
aI1076
aaaa(lp1044
I340
aI34
aI0
a(lp1045
(lp1046
I5
aI58
aaaa(lp1047
I341
aI35
aI0
a(lp1048
(lp1049
I7
aI1116
aaaa(lp1050
I342
aI36
aI0
a(lp1051
(lp1052
I2
aI1223
aaaa(lp1053
I343
aI37
aI1
a(lp1054
(lp1055
I8
aI1234
aaaa(lp1056
I344
aI38
aI0
a(lp1057
(lp1058
I3
aI947
aaaa(lp1059
I345
aI39
aI0
a(lp1060
(lp1061
I6
aI1005
aaaa(lp1062
I346
aI40
aI1
a(lp1063
(lp1064
I8
aI1025
aaaa(lp1065
I347
aI41
aI0
a(lp1066
(lp1067
I10
aI1034
aaaa(lp1068
I348
aI42
aI0
a(lp1069
(lp1070
I10
aI1123
aaaa(lp1071
I349
aI43
aI0
a(lp1072
(lp1073
I9
aI585
aaaa(lp1074
I350
aI44
aI0
a(lp1075
(lp1076
I11
aI614
aaaa(lp1077
I351
aI45
aI0
a(lp1078
(lp1079
I9
aI727
aaaa(lp1080
I352
aI46
aI0
a(lp1081
(lp1082
I5
aI852
aaaa(lp1083
I353
aI47
aI0
a(lp1084
(lp1085
I7
aI722
aaaa(lp1086
I354
aI48
aI0
a(lp1087
(lp1088
I5
aI195
aa(lp1089
I3
aI519
aaaa(lp1090
I355
aI49
aI1
a(lp1091
(lp1092
I10
aI612
aaaa(lp1093
I356
aI50
aI1
a(lp1094
(lp1095
I8
aI717
aaaa(lp1096
I357
aI51
aI0
a(lp1097
(lp1098
I3
aI489
aaaa(lp1099
I358
aI52
aI0
a(lp1100
(lp1101
I11
aI493
aaaa(lp1102
I359
aI53
aI0
a(lp1103
(lp1104
I10
aI1149
aaaa(lp1105
I360
aI54
aI0
a(lp1106
(lp1107
I5
aI1050
aaaa(lp1108
I361
aI55
aI0
a(lp1109
(lp1110
I4
aI1007
aaaa(lp1111
I362
aI56
aI0
a(lp1112
(lp1113
I6
aI959
aaaa(lp1114
I363
aI57
aI0
a(lp1115
(lp1116
I8
aI971
aaaa(lp1117
I364
aI58
aI0
a(lp1118
(lp1119
I2
aI941
aaaa(lp1120
I365
aI59
aI0
a(lp1121
(lp1122
I2
aI108
aaaa(lp1123
I366
aI60
aI0
a(lp1124
(lp1125
I2
aI130
aaaa(lp1126
I367
aI61
aI0
a(lp1127
(lp1128
I6
aI2
aa(lp1129
I6
aI1388
aaaa(lp1130
I368
aI62
aI0
a(lp1131
(lp1132
I6
aI1329
aaaa(lp1133
I369
aI63
aI1
a(lp1134
(lp1135
I8
aI46
aaaa(lp1136
I370
aI64
aI1
a(lp1137
(lp1138
I1
aI32
aaaa(lp1139
I371
aI65
aI0
a(lp1140
(lp1141
I6
aI47
aaaa(lp1142
I372
aI66
aI0
a(lp1143
(lp1144
I7
aI1279
aaaa(lp1145
I373
aI67
aI0
a(lp1146
(lp1147
I3
aI1140
aaaa(lp1148
I374
aI68
aI0
a(lp1149
(lp1150
I3
aI982
aaaa(lp1151
I375
aI69
aI1
a(lp1152
(lp1153
I3
aI1056
aaaa(lp1154
I376
aI70
aI0
a(lp1155
(lp1156
I9
aI722
aaaa(lp1157
I377
aI71
aI0
a(lp1158
(lp1159
I2
aI1217
aaaa(lp1160
I378
aI72
aI0
a(lp1161
(lp1162
I9
aI715
aaaa(lp1163
I379
aI73
aI0
a(lp1164
(lp1165
I5
aI763
aaaa(lp1166
I380
aI74
aI0
a(lp1167
(lp1168
I11
aI1151
aaaa(lp1169
I381
aI75
aI0
a(lp1170
(lp1171
I9
aI802
aaaa(lp1172
I382
aI76
aI0
a(lp1173
(lp1174
I7
aI881
aaaa(lp1175
I383
aI77
aI0
a(lp1176
(lp1177
I10
aI461
aaaa(lp1178
I384
aI78
aI1
a(lp1179
(lp1180
I6
aI14
aa(lp1181
I7
aI663
aaaa(lp1182
I385
aI79
aI0
a(lp1183
(lp1184
I2
aI614
aaaa(lp1185
I386
aI80
aI0
a(lp1186
(lp1187
I10
aI625
aaaa(lp1188
I387
aI81
aI0
a(lp1189
(lp1190
I5
aI339
aaaa(lp1191
I388
aI82
aI0
a(lp1192
(lp1193
I7
aI455
aaaa(lp1194
I389
aI83
aI0
a(lp1195
(lp1196
I4
aI218
aaaa(lp1197
I390
aI84
aI0
a(lp1198
(lp1199
I4
aI413
aaaa(lp1200
I391
aI85
aI0
a(lp1201
(lp1202
I10
aI242
aaaa(lp1203
I392
aI86
aI0
a(lp1204
(lp1205
I6
aI61
aaaa(lp1206
I393
aI87
aI0
a(lp1207
(lp1208
I3
aI213
aaaa(lp1209
I394
aI88
aI0
a(lp1210
(lp1211
I9
aI132
aaaa(lp1212
I395
aI89
aI0
a(lp1213
(lp1214
I10
aI255
aaaa(lp1215
I396
aI90
aI0
a(lp1216
(lp1217
I10
aI1338
aaaa(lp1218
I397
aI91
aI1
a(lp1219
(lp1220
I1
aI141
aaaa(lp1221
I398
aI92
aI0
a(lp1222
(lp1223
I5
aI1138
aaaa(lp1224
I399
aI93
aI0
a(lp1225
(lp1226
I4
aI181
aaaasS'intDemandResults'
p1227
(lp1228
(lp1229
I183300
aI105868
aa(lp1230
I182533
aI140296
aa(lp1231
I181212
aI79811
aa(lp1232
I184548
aI130944
aa(lp1233
I184446
aI139200
aa(lp1234
I178503
aI64831
aa(lp1235
I169648
aI92084
aa(lp1236
I178538
aI86116
aa(lp1237
I178718
aI81743
aa(lp1238
I166551
aI76078
aasS'rootConsumption'
p1239
(lp1240
I1625327
aI213110
asS'endFalseEstimates'
p1241
(lp1242
F0.0
aF0.0
aF0.0
aF0.0
aF0.0
aF0.0
aF0.0
aF0.0
aF0.0
aF0.0
aF0.0
aF0.0
aF0.0
aF0.0
aF0.0
aF0.0
aF0.0
aF0.0
aF0.0
aF0.0
aF0.0
aF0.0
aF0.0
aF0.0
aF0.0
aF0.0
aF0.0
aF0.0
aF0.0
aF0.0
aF0.0
aF0.0
aF0.0
aF0.0
aF0.0
aF0.0
aF0.0
aF0.0
aF0.0
aF0.0
aF0.0
aF0.0
aF0.0
aF0.0
aF0.0
aF0.0
aF0.0
aF0.0
aF0.0
aF0.0
aF0.0
aF0.0
aF0.0
aF0.0
aF0.0
aF0.0
aF0.0
aF0.0
aF0.0
aF0.0
aF0.0
aF0.0
aF0.0
aF0.0
aF0.0
aF0.0
aF0.0
aF0.0
aF0.0
aF0.0
aF0.0
aF0.0
aF0.0
aF0.0
aF0.0
aF0.0
aF0.0
aF0.0
aF0.0
aF0.0
aF0.0
aF0.0
aF0.0
aF0.0
aF0.0
aF0.0
aF0.0
aF0.0
aF0.0
aF0.0
aF0.0
aF0.0
aF0.0
aF0.0
aF0.0
aF0.0
aF0.0
aF0.0
aF0.0
aF0.0
aF0.0
aF0.0
aF0.0
aF0.0
aF0.0
aF0.0
assI1
(dp1243
g2
(lp1244
(lp1245
I15056
aI0
aa(lp1246
I15078
aI0
aa(lp1247
I15031
aI0
aa(lp1248
I17482
aI0
aa(lp1249
I17735
aI0
aa(lp1250
I17648
aI0
aa(lp1251
I17692
aI0
aa(lp1252
I17702
aI0
aa(lp1253
I17954
aI0
aa(lp1254
I17884
aI0
aa(lp1255
I17686
aI0
aa(lp1256
I17485
aI0
aa(lp1257
I17763
aI0
aa(lp1258
I14465
aI0
aa(lp1259
I14882
aI0
aa(lp1260
I14774
aI0
aa(lp1261
I16570
aI0
aa(lp1262
I16739
aI0
aa(lp1263
I16896
aI10
aa(lp1264
I16669
aI0
aa(lp1265
I16737
aI0
aa(lp1266
I16804
aI3
aa(lp1267
I16926
aI0
aa(lp1268
I16946
aI0
aa(lp1269
I16943
aI0
aa(lp1270
I16682
aI0
aa(lp1271
I16840
aI0
aa(lp1272
I16675
aI13
aa(lp1273
I16431
aI0
aa(lp1274
I16778
aI0
aa(lp1275
I16463
aI4
aa(lp1276
I15594
aI0
aa(lp1277
I15195
aI0
aa(lp1278
I18476
aI0
aa(lp1279
I18259
aI0
aa(lp1280
I18514
aI0
aa(lp1281
I18344
aI0
aa(lp1282
I18300
aI0
aa(lp1283
I18252
aI2
aa(lp1284
I18178
aI0
aa(lp1285
I18252
aI0
aa(lp1286
I17885
aI728
aa(lp1287
I18014
aI731
aa(lp1288
I18045
aI662
aa(lp1289
I17981
aI687
aa(lp1290
I18085
aI614
aa(lp1291
I17623
aI712
aa(lp1292
I17973
aI0
aa(lp1293
I18072
aI0
aa(lp1294
I18071
aI0
aa(lp1295
I18054
aI0
aa(lp1296
I17578
aI0
aa(lp1297
I17324
aI0
aa(lp1298
I17304
aI0
aa(lp1299
I17385
aI0
aa(lp1300
I17355
aI0
aa(lp1301
I17530
aI0
aa(lp1302
I17504
aI0
aa(lp1303
I17256
aI0
aa(lp1304
I17566
aI0
aa(lp1305
I17497
aI0
aa(lp1306
I17661
aI0
aa(lp1307
I17408
aI0
aa(lp1308
I17440
aI0
aa(lp1309
I17350
aI0
aa(lp1310
I17371
aI0
aa(lp1311
I17515
aI0
aa(lp1312
I17520
aI0
aa(lp1313
I17361
aI0
aa(lp1314
I17320
aI0
aa(lp1315
I17370
aI0
aa(lp1316
I17301
aI0
aa(lp1317
I17439
aI0
aa(lp1318
I17151
aI0
aa(lp1319
I17385
aI0
aa(lp1320
I17567
aI0
aa(lp1321
I17657
aI0
aa(lp1322
I17644
aI0
aa(lp1323
I17430
aI0
aa(lp1324
I17750
aI0
aa(lp1325
I17227
aI0
aa(lp1326
I17390
aI0
aa(lp1327
I17469
aI0
aa(lp1328
I17455
aI0
aa(lp1329
I17245
aI0
aa(lp1330
I17657
aI0
aa(lp1331
I17590
aI0
aa(lp1332
I17620
aI0
aa(lp1333
I17455
aI0
aa(lp1334
I17674
aI0
aa(lp1335
I17610
aI0
aa(lp1336
I17406
aI0
aa(lp1337
I17444
aI0
aa(lp1338
I17620
aI0
aa(lp1339
I17591
aI0
aa(lp1340
I17440
aI0
aa(lp1341
I17487
aI0
aa(lp1342
I17518
aI0
aa(lp1343
I17601
aI0
aa(lp1344
I17235
aI1594
aa(lp1345
I17520
aI1502
aa(lp1346
I17930
aI0
aa(lp1347
I17530
aI0
aa(lp1348
I18073
aI0
aa(lp1349
I18051
aI0
aa(lp1350
I18129
aI0
aasg110
(lp1351
F0.0
aF0.0
aF0.0
aF0.0
aF0.0
aF0.0
aF0.14285714285714285
aF0.0
aF0.0
aF0.0
asg112
(lp1352
(lp1353
I36
aI48
aI1
a(lp1354
(lp1355
I1
aI191
aaaa(lp1356
I37
aI49
aI1
a(lp1357
(lp1358
I1
aI160
aaaa(lp1359
I38
aI50
aI1
a(lp1360
(lp1361
I1
aI23
aaaa(lp1362
I39
aI51
aI0
a(lp1363
(lp1364
I1
aI88
aaaa(lp1365
I40
aI52
aI0
a(lp1366
(lp1367
I11
aI1361
aaaa(lp1368
I41
aI53
aI-1
a(lp1369
aa(lp1370
I42
aI54
aI0
a(lp1371
(lp1372
I5
aI1341
aaaa(lp1373
I43
aI55
aI0
a(lp1374
(lp1375
I4
aI1328
aaaa(lp1376
I44
aI56
aI0
a(lp1377
(lp1378
I6
aI1246
aaaa(lp1379
I45
aI57
aI0
a(lp1380
(lp1381
I8
aI1140
aaaa(lp1382
I46
aI58
aI0
a(lp1383
(lp1384
I2
aI1159
aaaa(lp1385
I47
aI59
aI0
a(lp1386
(lp1387
I2
aI1029
aaaa(lp1388
I48
aI60
aI1
a(lp1389
(lp1390
I2
aI949
aaaa(lp1391
I49
aI61
aI0
a(lp1392
(lp1393
I6
aI987
aaaa(lp1394
I50
aI62
aI0
a(lp1395
(lp1396
I6
aI898
aaaa(lp1397
I51
aI63
aI0
a(lp1398
(lp1399
I8
aI406
aa(lp1400
I6
aI431
aaaa(lp1401
I52
aI64
aI0
a(lp1402
(lp1403
I6
aI790
aaaa(lp1404
I53
aI65
aI0
a(lp1405
(lp1406
I4
aI753
aaaa(lp1407
I54
aI66
aI0
a(lp1408
(lp1409
I7
aI730
aaaa(lp1410
I55
aI67
aI0
a(lp1411
(lp1412
I3
aI634
aaaa(lp1413
I56
aI68
aI0
a(lp1414
(lp1415
I3
aI506
aaaa(lp1416
I57
aI69
aI0
a(lp1417
(lp1418
I3
aI534
aaaa(lp1419
I58
aI70
aI0
a(lp1420
(lp1421
I9
aI496
aaaa(lp1422
I59
aI71
aI0
a(lp1423
(lp1424
I2
aI410
aaaa(lp1425
I60
aI72
aI0
a(lp1426
(lp1427
I9
aI476
aaaa(lp1428
I61
aI73
aI0
a(lp1429
(lp1430
I5
aI328
aaaa(lp1431
I62
aI74
aI0
a(lp1432
(lp1433
I10
aI418
aaaa(lp1434
I63
aI75
aI0
a(lp1435
(lp1436
I9
aI281
aaaa(lp1437
I64
aI76
aI0
a(lp1438
(lp1439
I7
aI243
aaaa(lp1440
I65
aI77
aI0
a(lp1441
(lp1442
I10
aI158
aaaa(lp1443
I66
aI78
aI0
a(lp1444
(lp1445
I7
aI99
aaaa(lp1446
I67
aI79
aI0
a(lp1447
(lp1448
I4
aI100
aaaa(lp1449
I68
aI80
aI0
a(lp1450
(lp1451
I10
aI14
aaaa(lp1452
I69
aI81
aI0
a(lp1453
(lp1454
I5
aI1305
aaaa(lp1455
I70
aI82
aI0
a(lp1456
(lp1457
I7
aI36
aaaa(lp1458
I71
aI83
aI0
a(lp1459
(lp1460
I4
aI1339
aaaa(lp1461
I72
aI84
aI0
a(lp1462
(lp1463
I4
aI766
aa(lp1464
I10
aI497
aaaa(lp1465
I73
aI85
aI0
a(lp1466
(lp1467
I10
aI1172
aaaa(lp1468
I74
aI86
aI0
a(lp1469
(lp1470
I7
aI1183
aaaa(lp1471
I75
aI87
aI0
a(lp1472
(lp1473
I11
aI1100
aaaa(lp1474
I76
aI88
aI0
a(lp1475
(lp1476
I9
aI949
aaaa(lp1477
I77
aI89
aI0
a(lp1478
(lp1479
I3
aI900
aaaa(lp1480
I78
aI90
aI0
a(lp1481
(lp1482
I10
aI876
aaaa(lp1483
I79
aI91
aI0
a(lp1484
(lp1485
I6
aI765
aaaa(lp1486
I80
aI92
aI0
a(lp1487
(lp1488
I11
aI894
aa(lp1489
I9
aI39
aaaa(lp1490
I81
aI93
aI0
a(lp1491
(lp1492
I2
aI752
aaaa(lp1493
I82
aI94
aI0
a(lp1494
(lp1495
I10
aI828
aaaa(lp1496
I83
aI95
aI0
a(lp1497
(lp1498
I4
aI699
aaaa(lp1499
I84
aI96
aI0
a(lp1500
(lp1501
I6
aI640
aaaa(lp1502
I85
aI97
aI0
a(lp1503
(lp1504
I7
aI676
aaaa(lp1505
I86
aI98
aI0
a(lp1506
(lp1507
I4
aI603
aaaa(lp1508
I87
aI99
aI1
a(lp1509
(lp1510
I9
aI606
aaaa(lp1511
I88
aI100
aI0
a(lp1512
(lp1513
I9
aI610
aaaa(lp1514
I89
aI101
aI0
a(lp1515
(lp1516
I9
aI413
aaaa(lp1517
I90
aI102
aI0
a(lp1518
(lp1519
I4
aI447
aaaa(lp1520
I91
aI103
aI0
a(lp1521
(lp1522
I5
aI340
aaaa(lp1523
I92
aI104
aI1
a(lp1524
(lp1525
I8
aI324
aaaa(lp1526
I93
aI105
aI0
a(lp1527
(lp1528
I7
aI231
aaaa(lp1529
I94
aI106
aI0
a(lp1530
(lp1531
I5
aI73
aaaa(lp1532
I95
aI107
aI1
a(lp1533
(lp1534
I8
aI255
aaaa(lp1535
I96
aI108
aI1
a(lp1536
(lp1537
I6
aI155
aaaa(lp1538
I97
aI109
aI0
a(lp1539
(lp1540
I7
aI64
aaaa(lp1541
I98
aI110
aI1
a(lp1542
(lp1543
I8
aI189
aaaa(lp1544
I99
aI111
aI1
a(lp1545
(lp1546
I1
aI269
aaaa(lp1547
I100
aI112
aI0
a(lp1548
(lp1549
I2
aI241
aaaa(lp1550
I101
aI113
aI0
a(lp1551
(lp1552
I11
aI1318
aaaa(lp1553
I102
aI114
aI0
a(lp1554
(lp1555
I2
aI1156
aaaa(lp1556
I103
aI115
aI0
a(lp1557
(lp1558
I8
aI1181
aaaa(lp1559
I104
aI116
aI0
a(lp1560
(lp1561
I4
aI1175
aaaa(lp1562
I105
aI117
aI0
a(lp1563
(lp1564
I3
aI1140
aaaa(lp1565
I106
aI12
aI0
a(lp1566
(lp1567
I7
aI29
aa(lp1568
I7
aI708
aaaa(lp1569
I107
aI13
aI0
a(lp1570
(lp1571
I11
aI864
aaaa(lp1572
I108
aI14
aI0
a(lp1573
(lp1574
I10
aI648
aaaa(lp1575
I109
aI15
aI0
a(lp1576
(lp1577
I3
aI921
aaaa(lp1578
I110
aI16
aI0
a(lp1579
(lp1580
I6
aI874
aaaa(lp1581
I111
aI17
aI0
a(lp1582
(lp1583
I11
aI810
aaaa(lp1584
I112
aI18
aI0
a(lp1585
(lp1586
I4
aI799
aaaa(lp1587
I113
aI19
aI1
a(lp1588
(lp1589
I11
aI753
aaaa(lp1590
I114
aI20
aI0
a(lp1591
(lp1592
I4
aI615
aaaa(lp1593
I115
aI21
aI0
a(lp1594
(lp1595
I5
aI557
aaaa(lp1596
I116
aI22
aI0
a(lp1597
(lp1598
I3
aI661
aaaa(lp1599
I117
aI23
aI0
a(lp1600
(lp1601
I2
aI606
aaaa(lp1602
I118
aI24
aI0
a(lp1603
(lp1604
I3
aI493
aaaa(lp1605
I119
aI25
aI0
a(lp1606
(lp1607
I11
aI350
aaaa(lp1608
I120
aI26
aI0
a(lp1609
(lp1610
I9
aI330
aaaa(lp1611
I121
aI27
aI0
a(lp1612
(lp1613
I8
aI366
aaaa(lp1614
I122
aI28
aI0
a(lp1615
(lp1616
I8
aI423
aaaa(lp1617
I123
aI29
aI0
a(lp1618
(lp1619
I3
aI343
aaaa(lp1620
I124
aI30
aI1
a(lp1621
(lp1622
I6
aI165
aaaa(lp1623
I125
aI31
aI0
a(lp1624
(lp1625
I4
aI278
aaaa(lp1626
I126
aI32
aI0
a(lp1627
(lp1628
I11
aI11
aaaa(lp1629
I127
aI33
aI0
a(lp1630
(lp1631
I11
aI118
aaaa(lp1632
I128
aI34
aI0
a(lp1633
(lp1634
I5
aI53
aaaa(lp1635
I129
aI35
aI0
a(lp1636
(lp1637
I7
aI1242
aaaa(lp1638
I130
aI36
aI0
a(lp1639
(lp1640
I2
aI1210
aaaa(lp1641
I131
aI37
aI0
a(lp1642
(lp1643
I8
aI1234
aaaa(lp1644
I132
aI38
aI0
a(lp1645
(lp1646
I3
aI1148
aaaa(lp1647
I133
aI39
aI0
a(lp1648
(lp1649
I6
aI1200
aaaa(lp1650
I134
aI40
aI1
a(lp1651
(lp1652
I8
aI1178
aaaa(lp1653
I135
aI41
aI0
a(lp1654
(lp1655
I10
aI1055
aaaa(lp1656
I136
aI42
aI1
a(lp1657
(lp1658
I5
aI1007
aaaa(lp1659
I137
aI43
aI0
a(lp1660
(lp1661
I9
aI782
aaaa(lp1662
I138
aI44
aI1
a(lp1663
(lp1664
I11
aI938
aaaa(lp1665
I139
aI45
aI0
a(lp1666
(lp1667
I9
aI945
aaaa(lp1668
I140
aI46
aI0
a(lp1669
(lp1670
I5
aI942
aaaa(lp1671
I141
aI47
aI0
a(lp1672
(lp1673
I7
aI637
aaaa(lp1674
I142
aI48
aI0
a(lp1675
(lp1676
I5
aI776
aaaa(lp1677
I143
aI49
aI0
a(lp1678
(lp1679
I10
aI874
aaaa(lp1680
I144
aI50
aI1
a(lp1681
(lp1682
I8
aI723
aaaa(lp1683
I145
aI51
aI0
a(lp1684
(lp1685
I3
aI802
aaaa(lp1686
I146
aI52
aI0
a(lp1687
(lp1688
I11
aI621
aaaa(lp1689
I147
aI53
aI0
a(lp1690
(lp1691
I10
aI850
aaaa(lp1692
I148
aI54
aI0
a(lp1693
(lp1694
I7
aI643
aaaa(lp1695
I149
aI55
aI0
a(lp1696
(lp1697
I4
aI744
aa(lp1698
I2
aI8
aaaa(lp1699
I150
aI56
aI0
a(lp1700
(lp1701
I7
aI435
aa(lp1702
I10
aI224
aaaa(lp1703
I151
aI57
aI1
a(lp1704
(lp1705
I8
aI507
aaaa(lp1706
I152
aI58
aI0
a(lp1707
(lp1708
I2
aI653
aaaa(lp1709
I153
aI59
aI0
a(lp1710
(lp1711
I2
aI251
aaaa(lp1712
I154
aI60
aI0
a(lp1713
(lp1714
I2
aI254
aaaa(lp1715
I155
aI61
aI0
a(lp1716
(lp1717
I6
aI123
aaaa(lp1718
I156
aI62
aI0
a(lp1719
(lp1720
I6
aI218
aaaa(lp1721
I157
aI63
aI0
a(lp1722
(lp1723
I5
aI1325
aaaa(lp1724
I158
aI64
aI0
a(lp1725
(lp1726
I6
aI55
aaaa(lp1727
I159
aI65
aI0
a(lp1728
(lp1729
I4
aI97
aaaa(lp1730
I160
aI66
aI0
a(lp1731
(lp1732
I7
aI1299
aaaa(lp1733
I161
aI67
aI0
a(lp1734
(lp1735
I2
aI1315
aaaa(lp1736
I162
aI68
aI0
a(lp1737
(lp1738
I3
aI1133
aaaa(lp1739
I163
aI69
aI0
a(lp1740
(lp1741
I3
aI1092
aaaa(lp1742
I164
aI70
aI0
a(lp1743
(lp1744
I9
aI1138
aaaa(lp1745
I165
aI71
aI0
a(lp1746
(lp1747
I2
aI1033
aaaa(lp1748
I166
aI72
aI0
a(lp1749
(lp1750
I9
aI1145
aaaa(lp1751
I167
aI73
aI0
a(lp1752
(lp1753
I5
aI874
aaaa(lp1754
I168
aI74
aI0
a(lp1755
(lp1756
I11
aI996
aaaa(lp1757
I169
aI75
aI0
a(lp1758
(lp1759
I9
aI970
aaaa(lp1760
I170
aI76
aI1
a(lp1761
(lp1762
I7
aI819
aaaa(lp1763
I171
aI77
aI0
a(lp1764
(lp1765
I5
aI785
aaaa(lp1766
I172
aI78
aI0
a(lp1767
(lp1768
I6
aI711
aaaa(lp1769
I173
aI79
aI0
a(lp1770
(lp1771
I2
aI646
aaaa(lp1772
I174
aI80
aI0
a(lp1773
(lp1774
I4
aI720
aaaa(lp1775
I175
aI81
aI0
a(lp1776
(lp1777
I11
aI671
aa(lp1778
I2
aI39
aaaa(lp1779
I176
aI82
aI0
a(lp1780
(lp1781
I7
aI704
aaaa(lp1782
I177
aI83
aI0
a(lp1783
(lp1784
I9
aI647
aaaa(lp1785
I178
aI84
aI0
a(lp1786
(lp1787
I4
aI481
aaaa(lp1788
I179
aI85
aI0
a(lp1789
(lp1790
I10
aI650
aaaa(lp1791
I180
aI86
aI0
a(lp1792
(lp1793
I6
aI454
aaaa(lp1794
I181
aI87
aI0
a(lp1795
(lp1796
I3
aI244
aaaa(lp1797
I182
aI88
aI0
a(lp1798
(lp1799
I9
aI151
aaaa(lp1800
I183
aI89
aI0
a(lp1801
(lp1802
I3
aI187
aaaa(lp1803
I184
aI90
aI1
a(lp1804
(lp1805
I10
aI60
aaaa(lp1806
I185
aI91
aI0
a(lp1807
(lp1808
I6
aI74
aaaa(lp1809
I186
aI92
aI0
a(lp1810
(lp1811
I5
aI356
aaaa(lp1812
I187
aI93
aI0
a(lp1813
(lp1814
I2
aI177
aaaa(lp1815
I188
aI94
aI1
a(lp1816
(lp1817
I1
aI114
aaaa(lp1818
I189
aI95
aI0
a(lp1819
(lp1820
I4
aI1341
aaaa(lp1821
I190
aI96
aI0
a(lp1822
(lp1823
I6
aI1306
aaaa(lp1824
I191
aI97
aI0
a(lp1825
(lp1826
I7
aI1241
aaaa(lp1827
I192
aI98
aI0
a(lp1828
(lp1829
I4
aI1200
aaaa(lp1830
I193
aI99
aI0
a(lp1831
(lp1832
I9
aI1025
aaaa(lp1833
I194
aI100
aI0
a(lp1834
(lp1835
I9
aI1260
aaaa(lp1836
I195
aI101
aI0
a(lp1837
(lp1838
I9
aI931
aaaa(lp1839
I196
aI102
aI0
a(lp1840
(lp1841
I4
aI1063
aaaa(lp1842
I197
aI103
aI0
a(lp1843
(lp1844
I5
aI1042
aaaa(lp1845
I198
aI104
aI0
a(lp1846
(lp1847
I8
aI930
aaaa(lp1848
I199
aI105
aI0
a(lp1849
(lp1850
I7
aI868
aaaa(lp1851
I200
aI106
aI0
a(lp1852
(lp1853
I5
aI657
aaaa(lp1854
I201
aI107
aI0
a(lp1855
(lp1856
I8
aI883
aaaa(lp1857
I202
aI108
aI0
a(lp1858
(lp1859
I6
aI850
aaaa(lp1860
I203
aI109
aI0
a(lp1861
(lp1862
I7
aI621
aaaa(lp1863
I204
aI110
aI1
a(lp1864
(lp1865
I8
aI680
aaaa(lp1866
I205
aI111
aI-1
a(lp1867
aa(lp1868
I206
aI112
aI0
a(lp1869
(lp1870
I2
aI1366
aaaa(lp1871
I207
aI113
aI0
a(lp1872
(lp1873
I11
aI565
aaaa(lp1874
I208
aI114
aI0
a(lp1875
(lp1876
I2
aI538
aaaa(lp1877
I209
aI115
aI0
a(lp1878
(lp1879
I8
aI536
aaaa(lp1880
I210
aI116
aI0
a(lp1881
(lp1882
I4
aI366
aaaa(lp1883
I211
aI117
aI0
a(lp1884
(lp1885
I3
aI347
aaaa(lp1886
I212
aI12
aI0
a(lp1887
(lp1888
I7
aI185
aaaa(lp1889
I213
aI13
aI0
a(lp1890
(lp1891
I11
aI142
aaaa(lp1892
I214
aI14
aI0
a(lp1893
(lp1894
I10
aI44
aaaa(lp1895
I215
aI15
aI0
a(lp1896
(lp1897
I3
aI227
aaaa(lp1898
I216
aI16
aI0
a(lp1899
(lp1900
I6
aI144
aaaa(lp1901
I217
aI17
aI0
a(lp1902
(lp1903
I11
aI64
aaaa(lp1904
I218
aI18
aI0
a(lp1905
(lp1906
I4
aI12
aaaa(lp1907
I219
aI19
aI0
a(lp1908
(lp1909
I11
aI12
aa(lp1910
I11
aI1362
aaaa(lp1911
I220
aI20
aI0
a(lp1912
(lp1913
I4
aI1263
aaaa(lp1914
I221
aI21
aI0
a(lp1915
(lp1916
I5
aI1053
aaaa(lp1917
I222
aI22
aI0
a(lp1918
(lp1919
I10
aI1342
aaaa(lp1920
I223
aI23
aI0
a(lp1921
(lp1922
I2
aI169
aa(lp1923
I6
aI1067
aaaa(lp1924
I224
aI24
aI0
a(lp1925
(lp1926
I3
aI1022
aaaa(lp1927
I225
aI25
aI0
a(lp1928
(lp1929
I11
aI1037
aaaa(lp1930
I226
aI26
aI0
a(lp1931
(lp1932
I9
aI824
aaaa(lp1933
I227
aI27
aI0
a(lp1934
(lp1935
I5
aI907
aaaa(lp1936
I228
aI28
aI1
a(lp1937
(lp1938
I8
aI1073
aaaa(lp1939
I229
aI29
aI0
a(lp1940
(lp1941
I5
aI864
aaaa(lp1942
I230
aI30
aI1
a(lp1943
(lp1944
I6
aI744
aaaa(lp1945
I231
aI31
aI0
a(lp1946
(lp1947
I4
aI909
aaaa(lp1948
I232
aI32
aI0
a(lp1949
(lp1950
I11
aI684
aaaa(lp1951
I233
aI33
aI0
a(lp1952
(lp1953
I11
aI739
aa(lp1954
I10
aI39
aaaa(lp1955
I234
aI34
aI0
a(lp1956
(lp1957
I5
aI547
aaaa(lp1958
I235
aI35
aI0
a(lp1959
(lp1960
I7
aI514
aaaa(lp1961
I236
aI36
aI0
a(lp1962
(lp1963
I2
aI445
aaaa(lp1964
I237
aI37
aI0
a(lp1965
(lp1966
I8
aI493
aaaa(lp1967
I238
aI38
aI0
a(lp1968
(lp1969
I3
aI473
aaaa(lp1970
I239
aI39
aI0
a(lp1971
(lp1972
I6
aI442
aaaa(lp1973
I240
aI40
aI0
a(lp1974
(lp1975
I8
aI525
aaaa(lp1976
I241
aI41
aI0
a(lp1977
(lp1978
I10
aI260
aaaa(lp1979
I242
aI42
aI1
a(lp1980
(lp1981
I5
aI159
aa(lp1982
I10
aI369
aaaa(lp1983
I243
aI43
aI0
a(lp1984
(lp1985
I9
aI52
aa(lp1986
I9
aI1182
aaaa(lp1987
I244
aI44
aI0
a(lp1988
(lp1989
I11
aI417
aaaa(lp1990
I245
aI45
aI0
a(lp1991
(lp1992
I9
aI259
aaaa(lp1993
I246
aI46
aI0
a(lp1994
(lp1995
I5
aI181
aaaa(lp1996
I247
aI47
aI0
a(lp1997
(lp1998
I7
aI1342
aaaa(lp1999
I248
aI48
aI0
a(lp2000
(lp2001
I5
aI84
aaaa(lp2002
I249
aI49
aI0
a(lp2003
(lp2004
I10
aI248
aaaa(lp2005
I250
aI50
aI0
a(lp2006
(lp2007
I8
aI30
aaaa(lp2008
I251
aI51
aI0
a(lp2009
(lp2010
I10
aI97
aaaa(lp2011
I252
aI52
aI0
a(lp2012
(lp2013
I11
aI1251
aaaa(lp2014
I253
aI53
aI0
a(lp2015
(lp2016
I9
aI262
aaaa(lp2017
I254
aI54
aI0
a(lp2018
(lp2019
I5
aI47
aaaa(lp2020
I255
aI55
aI0
a(lp2021
(lp2022
I4
aI73
aaaa(lp2023
I256
aI56
aI0
a(lp2024
(lp2025
I6
aI37
aaaa(lp2026
I257
aI57
aI0
a(lp2027
(lp2028
I2
aI46
aaaa(lp2029
I258
aI58
aI0
a(lp2030
(lp2031
I2
aI136
aaaa(lp2032
I259
aI59
aI0
a(lp2033
(lp2034
I2
aI983
aaaa(lp2035
I260
aI60
aI0
a(lp2036
(lp2037
I2
aI824
aaaa(lp2038
I261
aI61
aI0
a(lp2039
(lp2040
I6
aI731
aaaa(lp2041
I262
aI62
aI0
a(lp2042
(lp2043
I6
aI788
aaaa(lp2044
I263
aI63
aI0
a(lp2045
(lp2046
I5
aI582
aaaa(lp2047
I264
aI64
aI1
a(lp2048
(lp2049
I1
aI744
aaaa(lp2050
I265
aI65
aI0
a(lp2051
(lp2052
I8
aI805
aaaa(lp2053
I266
aI66
aI0
a(lp2054
(lp2055
I7
aI585
aaaa(lp2056
I267
aI67
aI0
a(lp2057
(lp2058
I3
aI535
aaaa(lp2059
I268
aI68
aI0
a(lp2060
(lp2061
I3
aI389
aaaa(lp2062
I269
aI69
aI0
a(lp2063
(lp2064
I3
aI396
aaaa(lp2065
I270
aI70
aI0
a(lp2066
(lp2067
I9
aI499
aaaa(lp2068
I271
aI71
aI0
a(lp2069
(lp2070
I2
aI238
aaaa(lp2071
I272
aI72
aI0
a(lp2072
(lp2073
I9
aI330
aaaa(lp2074
I273
aI73
aI0
a(lp2075
(lp2076
I5
aI111
aaaa(lp2077
I274
aI74
aI0
a(lp2078
(lp2079
I11
aI263
aaaa(lp2080
I275
aI75
aI0
a(lp2081
(lp2082
I9
aI272
aaaa(lp2083
I276
aI76
aI0
a(lp2084
(lp2085
I7
aI139
aaaa(lp2086
I277
aI77
aI0
a(lp2087
(lp2088
I10
aI107
aaaa(lp2089
I278
aI78
aI0
a(lp2090
(lp2091
I6
aI1322
aaaa(lp2092
I279
aI79
aI0
a(lp2093
(lp2094
I2
aI1279
aaaa(lp2095
I280
aI80
aI0
a(lp2096
(lp2097
I10
aI1339
aaaa(lp2098
I281
aI81
aI0
a(lp2099
(lp2100
I2
aI44
aaaa(lp2101
I282
aI82
aI0
a(lp2102
(lp2103
I7
aI125
aaaa(lp2104
I283
aI83
aI0
a(lp2105
(lp2106
I9
aI877
aa(lp2107
I6
aI303
aaaa(lp2108
I284
aI84
aI0
a(lp2109
(lp2110
I4
aI1099
aaaa(lp2111
I285
aI85
aI0
a(lp2112
(lp2113
I10
aI639
aa(lp2114
I11
aI681
aaaa(lp2115
I286
aI86
aI0
a(lp2116
(lp2117
I7
aI1140
aaaa(lp2118
I287
aI87
aI0
a(lp2119
(lp2120
I3
aI903
aaaa(lp2121
I288
aI88
aI0
a(lp2122
(lp2123
I9
aI712
aaaa(lp2124
I289
aI89
aI0
a(lp2125
(lp2126
I3
aI710
aaaa(lp2127
I290
aI90
aI0
a(lp2128
(lp2129
I10
aI752
aaaa(lp2130
I291
aI91
aI0
a(lp2131
(lp2132
I6
aI681
aaaa(lp2133
I292
aI92
aI0
a(lp2134
(lp2135
I3
aI936
aaaa(lp2136
I293
aI93
aI0
a(lp2137
(lp2138
I11
aI512
aa(lp2139
I10
aI247
aaaa(lp2140
I294
aI94
aI0
a(lp2141
(lp2142
I3
aI593
aaaa(lp2143
I295
aI95
aI0
a(lp2144
(lp2145
I4
aI569
aaaa(lp2146
I296
aI96
aI0
a(lp2147
(lp2148
I10
aI647
aaaa(lp2149
I297
aI97
aI0
a(lp2150
(lp2151
I9
aI449
aaaa(lp2152
I298
aI98
aI0
a(lp2153
(lp2154
I4
aI548
aaaa(lp2155
I299
aI99
aI0
a(lp2156
(lp2157
I9
aI326
aaaa(lp2158
I300
aI100
aI0
a(lp2159
(lp2160
I9
aI535
aaaa(lp2161
I301
aI101
aI0
a(lp2162
(lp2163
I9
aI285
aaaa(lp2164
I302
aI102
aI0
a(lp2165
(lp2166
I4
aI274
aaaa(lp2167
I303
aI103
aI0
a(lp2168
(lp2169
I8
aI424
aaaa(lp2170
I304
aI104
aI0
a(lp2171
(lp2172
I8
aI244
aaaa(lp2173
I305
aI105
aI0
a(lp2174
(lp2175
I4
aI92
aaaa(lp2176
I306
aI106
aI0
a(lp2177
(lp2178
I5
aI1321
aaaa(lp2179
I307
aI107
aI0
a(lp2180
(lp2181
I8
aI125
aaaa(lp2182
I308
aI108
aI0
a(lp2183
(lp2184
I6
aI48
aaaa(lp2185
I309
aI109
aI0
a(lp2186
(lp2187
I7
aI1253
aaaa(lp2188
I310
aI110
aI1
a(lp2189
(lp2190
I8
aI1208
aaaa(lp2191
I311
aI111
aI0
a(lp2192
(lp2193
I2
aI1309
aaaa(lp2194
I312
aI112
aI0
a(lp2195
(lp2196
I2
aI1051
aaaa(lp2197
I313
aI113
aI0
a(lp2198
(lp2199
I11
aI1141
aaaa(lp2200
I314
aI114
aI0
a(lp2201
(lp2202
I2
aI1285
aaaa(lp2203
I315
aI115
aI1
a(lp2204
(lp2205
I8
aI1159
aaaa(lp2206
I316
aI116
aI0
a(lp2207
(lp2208
I4
aI1069
aaaa(lp2209
I317
aI117
aI0
a(lp2210
(lp2211
I3
aI1003
aaaa(lp2212
I318
aI12
aI0
a(lp2213
(lp2214
I7
aI654
aaaa(lp2215
I319
aI13
aI0
a(lp2216
(lp2217
I11
aI580
aaaa(lp2218
I320
aI14
aI0
a(lp2219
(lp2220
I10
aI599
aaaa(lp2221
I321
aI15
aI0
a(lp2222
(lp2223
I9
aI985
aaaa(lp2224
I322
aI16
aI0
a(lp2225
(lp2226
I6
aI699
aaaa(lp2227
I323
aI17
aI0
a(lp2228
(lp2229
I11
aI767
aaaa(lp2230
I324
aI18
aI0
a(lp2231
(lp2232
I4
aI647
aaaa(lp2233
I325
aI19
aI0
a(lp2234
(lp2235
I11
aI605
aaaa(lp2236
I326
aI20
aI0
a(lp2237
(lp2238
I4
aI394
aaaa(lp2239
I327
aI21
aI0
a(lp2240
(lp2241
I5
aI377
aaaa(lp2242
I328
aI22
aI0
a(lp2243
(lp2244
I3
aI608
aaaa(lp2245
I329
aI23
aI0
a(lp2246
(lp2247
I6
aI569
aaaa(lp2248
I330
aI24
aI0
a(lp2249
(lp2250
I3
aI369
aaaa(lp2251
I331
aI25
aI0
a(lp2252
(lp2253
I11
aI563
aaaa(lp2254
I332
aI26
aI0
a(lp2255
(lp2256
I9
aI180
aaaa(lp2257
I333
aI27
aI0
a(lp2258
(lp2259
I5
aI274
aaaa(lp2260
I334
aI28
aI0
a(lp2261
(lp2262
I10
aI414
aaaa(lp2263
I335
aI29
aI0
a(lp2264
(lp2265
I5
aI193
aaaa(lp2266
I336
aI30
aI0
a(lp2267
(lp2268
I6
aI83
aaaa(lp2269
I337
aI31
aI0
a(lp2270
(lp2271
I4
aI206
aaaa(lp2272
I338
aI32
aI0
a(lp2273
(lp2274
I11
aI53
aaaa(lp2275
I339
aI33
aI0
a(lp2276
(lp2277
I11
aI64
aaaa(lp2278
I340
aI34
aI0
a(lp2279
(lp2280
I5
aI1116
aaaa(lp2281
I341
aI35
aI0
a(lp2282
(lp2283
I7
aI1115
aaaa(lp2284
I342
aI36
aI0
a(lp2285
(lp2286
I2
aI1044
aaaa(lp2287
I343
aI37
aI1
a(lp2288
(lp2289
I8
aI1176
aaaa(lp2290
I344
aI38
aI0
a(lp2291
(lp2292
I3
aI1086
aaaa(lp2293
I345
aI39
aI0
a(lp2294
(lp2295
I6
aI990
aaaa(lp2296
I346
aI40
aI1
a(lp2297
(lp2298
I8
aI1167
aaaa(lp2299
I347
aI41
aI0
a(lp2300
(lp2301
I10
aI849
aaaa(lp2302
I348
aI42
aI0
a(lp2303
(lp2304
I5
aI1006
aaaa(lp2305
I349
aI43
aI0
a(lp2306
(lp2307
I9
aI586
aaaa(lp2308
I350
aI44
aI0
a(lp2309
(lp2310
I11
aI1007
aaaa(lp2311
I351
aI45
aI0
a(lp2312
(lp2313
I9
aI757
aaaa(lp2314
I352
aI46
aI0
a(lp2315
(lp2316
I5
aI465
aa(lp2317
I9
aI455
aaaa(lp2318
I353
aI47
aI0
a(lp2319
(lp2320
I7
aI562
aaaa(lp2321
I354
aI48
aI0
a(lp2322
(lp2323
I5
aI731
aaaa(lp2324
I355
aI49
aI0
a(lp2325
(lp2326
I10
aI685
aaaa(lp2327
I356
aI50
aI1
a(lp2328
(lp2329
I8
aI667
aaaa(lp2330
I357
aI51
aI0
a(lp2331
(lp2332
I10
aI810
aaaa(lp2333
I358
aI52
aI0
a(lp2334
(lp2335
I11
aI609
aaaa(lp2336
I359
aI53
aI0
a(lp2337
(lp2338
I10
aI1107
aaaa(lp2339
I360
aI54
aI0
a(lp2340
(lp2341
I5
aI933
aaaa(lp2342
I361
aI55
aI0
a(lp2343
(lp2344
I4
aI907
aaaa(lp2345
I362
aI56
aI0
a(lp2346
(lp2347
I6
aI873
aaaa(lp2348
I363
aI57
aI0
a(lp2349
(lp2350
I8
aI744
aaaa(lp2351
I364
aI58
aI0
a(lp2352
(lp2353
I2
aI1043
aaaa(lp2354
I365
aI59
aI0
a(lp2355
(lp2356
I2
aI228
aaaa(lp2357
I366
aI60
aI0
a(lp2358
(lp2359
I2
aI119
aaaa(lp2360
I367
aI61
aI0
a(lp2361
(lp2362
I6
aI92
aaaa(lp2363
I368
aI62
aI0
a(lp2364
(lp2365
I6
aI14
aa(lp2366
I6
aI1388
aaaa(lp2367
I369
aI63
aI0
a(lp2368
(lp2369
I5
aI1194
aaaa(lp2370
I370
aI64
aI0
a(lp2371
(lp2372
I6
aI92
aaaa(lp2373
I371
aI65
aI0
a(lp2374
(lp2375
I6
aI49
aaaa(lp2376
I372
aI66
aI0
a(lp2377
(lp2378
I7
aI1238
aaaa(lp2379
I373
aI67
aI0
a(lp2380
(lp2381
I8
aI1300
aaaa(lp2382
I374
aI68
aI0
a(lp2383
(lp2384
I3
aI1079
aaaa(lp2385
I375
aI69
aI0
a(lp2386
(lp2387
I3
aI992
aaaa(lp2388
I376
aI70
aI0
a(lp2389
(lp2390
I9
aI748
aa(lp2391
I10
aI485
aaaa(lp2392
I377
aI71
aI0
a(lp2393
(lp2394
I2
aI900
aaaa(lp2395
I378
aI72
aI0
a(lp2396
(lp2397
I9
aI940
aaaa(lp2398
I379
aI73
aI0
a(lp2399
(lp2400
I5
aI711
aaaa(lp2401
I380
aI74
aI0
a(lp2402
(lp2403
I11
aI873
aaaa(lp2404
I381
aI75
aI0
a(lp2405
(lp2406
I9
aI827
aaaa(lp2407
I382
aI76
aI0
a(lp2408
(lp2409
I7
aI837
aaaa(lp2410
I383
aI77
aI0
a(lp2411
(lp2412
I10
aI813
aaaa(lp2413
I384
aI78
aI1
a(lp2414
(lp2415
I7
aI632
aaaa(lp2416
I385
aI79
aI0
a(lp2417
(lp2418
I10
aI577
aaaa(lp2419
I386
aI80
aI0
a(lp2420
(lp2421
I10
aI646
aaaa(lp2422
I387
aI81
aI0
a(lp2423
(lp2424
I11
aI660
aa(lp2425
I2
aI39
aaaa(lp2426
I388
aI82
aI0
a(lp2427
(lp2428
I7
aI601
aaaa(lp2429
I389
aI83
aI0
a(lp2430
(lp2431
I9
aI567
aaaa(lp2432
I390
aI84
aI0
a(lp2433
(lp2434
I4
aI426
aaaa(lp2435
I391
aI85
aI0
a(lp2436
(lp2437
I10
aI633
aaaa(lp2438
I392
aI86
aI0
a(lp2439
(lp2440
I6
aI391
aaaa(lp2441
I393
aI87
aI0
a(lp2442
(lp2443
I3
aI180
aaaa(lp2444
I394
aI88
aI0
a(lp2445
(lp2446
I9
aI30
aaaa(lp2447
I395
aI89
aI0
a(lp2448
(lp2449
I3
aI2
aaaa(lp2450
I396
aI90
aI0
a(lp2451
(lp2452
I10
aI153
aaaa(lp2453
I397
aI91
aI0
a(lp2454
(lp2455
I6
aI257
aa(lp2456
I2
aI889
aaaa(lp2457
I398
aI92
aI0
a(lp2458
(lp2459
I5
aI271
aaaa(lp2460
I399
aI93
aI0
a(lp2461
(lp2462
I6
aI70
aaaasg1227
(lp2463
(lp2464
I183654
aI98373
aa(lp2465
I184280
aI140603
aa(lp2466
I181281
aI92347
aa(lp2467
I184548
aI134267
aa(lp2468
I191242
aI137388
aa(lp2469
I162868
aI60487
aa(lp2470
I178043
aI88823
aa(lp2471
I182155
aI89106
aa(lp2472
I160827
aI80654
aa(lp2473
I183244
aI85558
aasg1239
(lp2474
I1629758
aI207369
asg1241
(lp2475
F0.0
aF0.0
aF0.0
aF0.0
aF0.0
aF0.0
aF0.0
aF0.0
aF0.0
aF0.0
aF0.0
aF0.0
aF0.0
aF0.0
aF0.0
aF0.0
aF0.0
aF0.0
aF0.0
aF0.0
aF0.0
aF0.0
aF0.0
aF0.0
aF0.0
aF-0.14285714285714285
aF0.0
aF0.0
aF-0.14285714285714285
aF0.0
aF0.0
aF0.0
aF0.0
aF0.0
aF0.0
aF0.0
aF0.0
aF0.0
aF-0.14285714285714285
aF0.0
aF0.0
aF0.0
aF0.0
aF0.0
aF0.0
aF0.0
aF0.0
aF0.0
aF0.0
aF0.0
aF0.0
aF0.0
aF0.0
aF0.0
aF0.0
aF0.0
aF0.0
aF0.0
aF0.0
aF0.0
aF0.0
aF0.0
aF0.0
aF0.0
aF0.0
aF0.0
aF0.0
aF0.0
aF0.0
aF0.0
aF0.0
aF0.0
aF0.0
aF0.0
aF0.0
aF0.0
aF0.0
aF0.0
aF0.0
aF0.0
aF0.0
aF0.0
aF0.0
aF0.0
aF0.0
aF0.0
aF0.0
aF0.0
aF0.0
aF0.0
aF0.0
aF0.0
aF-0.14285714285714285
aF0.0
aF0.0
aF-0.14285714285714285
aF0.0
aF0.0
aF0.8571428571428572
aF0.0
aF0.0
aF0.0
aF0.0
aF-0.14285714285714285
aF0.0
aF0.0
assI2
(dp2476
g2
(lp2477
(lp2478
I14793
aI3
aa(lp2479
I14819
aI0
aa(lp2480
I14831
aI0
aa(lp2481
I17754
aI0
aa(lp2482
I17518
aI0
aa(lp2483
I17687
aI0
aa(lp2484
I17761
aI0
aa(lp2485
I17732
aI0
aa(lp2486
I17799
aI0
aa(lp2487
I17926
aI0
aa(lp2488
I17745
aI0
aa(lp2489
I17683
aI0
aa(lp2490
I17894
aI0
aa(lp2491
I14802
aI0
aa(lp2492
I14788
aI0
aa(lp2493
I14579
aI0
aa(lp2494
I16831
aI0
aa(lp2495
I16856
aI0
aa(lp2496
I16970
aI0
aa(lp2497
I16809
aI0
aa(lp2498
I16894
aI0
aa(lp2499
I16658
aI0
aa(lp2500
I16715
aI0
aa(lp2501
I16773
aI0
aa(lp2502
I16859
aI0
aa(lp2503
I16826
aI0
aa(lp2504
I17088
aI0
aa(lp2505
I16581
aI0
aa(lp2506
I16674
aI0
aa(lp2507
I16616
aI0
aa(lp2508
I16753
aI0
aa(lp2509
I15188
aI0
aa(lp2510
I15418
aI0
aa(lp2511
I18498
aI0
aa(lp2512
I18434
aI0
aa(lp2513
I18531
aI0
aa(lp2514
I18749
aI0
aa(lp2515
I18173
aI0
aa(lp2516
I18597
aI0
aa(lp2517
I18359
aI6
aa(lp2518
I18299
aI6
aa(lp2519
I17753
aI740
aa(lp2520
I18013
aI621
aa(lp2521
I17828
aI591
aa(lp2522
I17738
aI737
aa(lp2523
I17757
aI741
aa(lp2524
I17644
aI826
aa(lp2525
I18224
aI0
aa(lp2526
I17923
aI0
aa(lp2527
I18295
aI0
aa(lp2528
I18057
aI0
aa(lp2529
I17457
aI0
aa(lp2530
I17684
aI2
aa(lp2531
I17395
aI0
aa(lp2532
I17331
aI0
aa(lp2533
I17505
aI0
aa(lp2534
I17323
aI0
aa(lp2535
I17609
aI0
aa(lp2536
I17528
aI0
aa(lp2537
I17484
aI0
aa(lp2538
I17436
aI0
aa(lp2539
I17323
aI0
aa(lp2540
I17450
aI0
aa(lp2541
I17412
aI0
aa(lp2542
I17618
aI0
aa(lp2543
I17410
aI0
aa(lp2544
I17305
aI0
aa(lp2545
I17395
aI0
aa(lp2546
I17671
aI0
aa(lp2547
I17427
aI0
aa(lp2548
I17219
aI0
aa(lp2549
I17726
aI0
aa(lp2550
I17429
aI0
aa(lp2551
I17506
aI0
aa(lp2552
I17162
aI0
aa(lp2553
I17365
aI0
aa(lp2554
I17432
aI0
aa(lp2555
I17326
aI0
aa(lp2556
I17564
aI0
aa(lp2557
I17479
aI0
aa(lp2558
I17555
aI0
aa(lp2559
I17347
aI0
aa(lp2560
I17528
aI0
aa(lp2561
I17522
aI0
aa(lp2562
I17428
aI0
aa(lp2563
I17512
aI0
aa(lp2564
I17523
aI0
aa(lp2565
I17535
aI0
aa(lp2566
I17557
aI0
aa(lp2567
I17361
aI0
aa(lp2568
I17614
aI0
aa(lp2569
I17521
aI0
aa(lp2570
I17507
aI0
aa(lp2571
I17367
aI0
aa(lp2572
I17571
aI0
aa(lp2573
I17751
aI0
aa(lp2574
I17139
aI0
aa(lp2575
I17443
aI0
aa(lp2576
I17351
aI0
aa(lp2577
I17372
aI1622
aa(lp2578
I17308
aI1442
aa(lp2579
I17589
aI0
aa(lp2580
I17436
aI0
aa(lp2581
I18090
aI0
aa(lp2582
I17951
aI0
aa(lp2583
I18152
aI0
aasg110
(lp2584
F0.0
aF0.0
aF0.0
aF0.0
aF0.0
aF0.0
aF0.2222222222222222
aF0.0
aF0.0
aF0.0
asg112
(lp2585
(lp2586
I36
aI48
aI1
a(lp2587
(lp2588
I1
aI118
aaaa(lp2589
I37
aI49
aI1
a(lp2590
(lp2591
I1
aI104
aaaa(lp2592
I38
aI50
aI1
a(lp2593
(lp2594
I1
aI27
aaaa(lp2595
I39
aI51
aI1
a(lp2596
(lp2597
I1
aI26
aaaa(lp2598
I40
aI52
aI0
a(lp2599
(lp2600
I11
aI1381
aaaa(lp2601
I41
aI53
aI-1
a(lp2602
aa(lp2603
I42
aI54
aI0
a(lp2604
(lp2605
I5
aI1287
aaaa(lp2606
I43
aI55
aI0
a(lp2607
(lp2608
I4
aI1314
aaaa(lp2609
I44
aI56
aI0
a(lp2610
(lp2611
I6
aI1237
aaaa(lp2612
I45
aI57
aI0
a(lp2613
(lp2614
I8
aI1233
aaaa(lp2615
I46
aI58
aI0
a(lp2616
(lp2617
I2
aI1215
aaaa(lp2618
I47
aI59
aI0
a(lp2619
(lp2620
I2
aI983
aaaa(lp2621
I48
aI60
aI0
a(lp2622
(lp2623
I2
aI959
aaaa(lp2624
I49
aI61
aI0
a(lp2625
(lp2626
I6
aI912
aaaa(lp2627
I50
aI62
aI0
a(lp2628
(lp2629
I6
aI946
aaaa(lp2630
I51
aI63
aI0
a(lp2631
(lp2632
I5
aI791
aaaa(lp2633
I52
aI64
aI0
a(lp2634
(lp2635
I6
aI787
aaaa(lp2636
I53
aI65
aI0
a(lp2637
(lp2638
I8
aI292
aa(lp2639
I4
aI419
aaaa(lp2640
I54
aI66
aI1
a(lp2641
(lp2642
I7
aI685
aaaa(lp2643
I55
aI67
aI0
a(lp2644
(lp2645
I3
aI601
aaaa(lp2646
I56
aI68
aI0
a(lp2647
(lp2648
I3
aI619
aaaa(lp2649
I57
aI69
aI0
a(lp2650
(lp2651
I3
aI474
aaaa(lp2652
I58
aI70
aI0
a(lp2653
(lp2654
I9
aI544
aaaa(lp2655
I59
aI71
aI0
a(lp2656
(lp2657
I7
aI476
aaaa(lp2658
I60
aI72
aI0
a(lp2659
(lp2660
I9
aI458
aaaa(lp2661
I61
aI73
aI0
a(lp2662
(lp2663
I10
aI458
aaaa(lp2664
I62
aI74
aI0
a(lp2665
(lp2666
I11
aI210
aaaa(lp2667
I63
aI75
aI0
a(lp2668
(lp2669
I9
aI193
aaaa(lp2670
I64
aI76
aI0
a(lp2671
(lp2672
I7
aI278
aaaa(lp2673
I65
aI77
aI0
a(lp2674
(lp2675
I10
aI184
aaaa(lp2676
I66
aI78
aI1
a(lp2677
(lp2678
I6
aI170
aaaa(lp2679
I67
aI79
aI0
a(lp2680
(lp2681
I2
aI44
aaaa(lp2682
I68
aI80
aI0
a(lp2683
(lp2684
I10
aI1
aa(lp2685
I10
aI1343
aaaa(lp2686
I69
aI81
aI0
a(lp2687
(lp2688
I9
aI65
aaaa(lp2689
I70
aI82
aI0
a(lp2690
(lp2691
I7
aI1276
aaaa(lp2692
I71
aI83
aI0
a(lp2693
(lp2694
I4
aI1199
aaaa(lp2695
I72
aI84
aI0
a(lp2696
(lp2697
I4
aI1203
aaaa(lp2698
I73
aI85
aI0
a(lp2699
(lp2700
I10
aI1173
aaaa(lp2701
I74
aI86
aI0
a(lp2702
(lp2703
I6
aI474
aa(lp2704
I3
aI634
aa(lp2705
I7
aI29
aaaa(lp2706
I75
aI87
aI0
a(lp2707
(lp2708
I11
aI1100
aa(lp2709
I2
aI39
aaaa(lp2710
I76
aI88
aI1
a(lp2711
(lp2712
I9
aI996
aaaa(lp2713
I77
aI89
aI0
a(lp2714
(lp2715
I3
aI916
aaaa(lp2716
I78
aI90
aI0
a(lp2717
(lp2718
I10
aI979
aaaa(lp2719
I79
aI91
aI1
a(lp2720
(lp2721
I1
aI996
aaaa(lp2722
I80
aI92
aI0
a(lp2723
(lp2724
I5
aI206
aa(lp2725
I8
aI668
aaaa(lp2726
I81
aI93
aI0
a(lp2727
(lp2728
I2
aI733
aaaa(lp2729
I82
aI94
aI0
a(lp2730
(lp2731
I10
aI793
aaaa(lp2732
I83
aI95
aI0
a(lp2733
(lp2734
I4
aI714
aaaa(lp2735
I84
aI96
aI0
a(lp2736
(lp2737
I10
aI700
aaaa(lp2738
I85
aI97
aI0
a(lp2739
(lp2740
I7
aI639
aaaa(lp2741
I86
aI98
aI0
a(lp2742
(lp2743
I4
aI610
aaaa(lp2744
I87
aI99
aI0
a(lp2745
(lp2746
I9
aI491
aaaa(lp2747
I88
aI100
aI0
a(lp2748
(lp2749
I9
aI374
aaaa(lp2750
I89
aI101
aI0
a(lp2751
(lp2752
I9
aI483
aaaa(lp2753
I90
aI102
aI0
a(lp2754
(lp2755
I4
aI234
aaaa(lp2756
I91
aI103
aI0
a(lp2757
(lp2758
I5
aI467
aaaa(lp2759
I92
aI104
aI1
a(lp2760
(lp2761
I8
aI284
aaaa(lp2762
I93
aI105
aI0
a(lp2763
(lp2764
I7
aI321
aaaa(lp2765
I94
aI106
aI0
a(lp2766
(lp2767
I5
aI220
aaaa(lp2768
I95
aI107
aI1
a(lp2769
(lp2770
I8
aI139
aaaa(lp2771
I96
aI108
aI0
a(lp2772
(lp2773
I6
aI176
aaaa(lp2774
I97
aI109
aI0
a(lp2775
(lp2776
I7
aI1345
aaaa(lp2777
I98
aI110
aI1
a(lp2778
(lp2779
I8
aI53
aaaa(lp2780
I99
aI111
aI0
a(lp2781
(lp2782
I2
aI273
aaaa(lp2783
I100
aI112
aI0
a(lp2784
(lp2785
I4
aI212
aaaa(lp2786
I101
aI113
aI0
a(lp2787
(lp2788
I11
aI1216
aaaa(lp2789
I102
aI114
aI0
a(lp2790
(lp2791
I2
aI1333
aaaa(lp2792
I103
aI115
aI1
a(lp2793
(lp2794
I8
aI1198
aaaa(lp2795
I104
aI116
aI0
a(lp2796
(lp2797
I4
aI1232
aaaa(lp2798
I105
aI117
aI0
a(lp2799
(lp2800
I3
aI1147
aaaa(lp2801
I106
aI12
aI0
a(lp2802
(lp2803
I4
aI910
aaaa(lp2804
I107
aI13
aI0
a(lp2805
(lp2806
I11
aI863
aaaa(lp2807
I108
aI14
aI0
a(lp2808
(lp2809
I10
aI900
aaaa(lp2810
I109
aI15
aI0
a(lp2811
(lp2812
I3
aI1009
aaaa(lp2813
I110
aI16
aI0
a(lp2814
(lp2815
I6
aI1020
aaaa(lp2816
I111
aI17
aI0
a(lp2817
(lp2818
I11
aI778
aaaa(lp2819
I112
aI18
aI1
a(lp2820
(lp2821
I4
aI797
aaaa(lp2822
I113
aI19
aI0
a(lp2823
(lp2824
I11
aI728
aaaa(lp2825
I114
aI20
aI0
a(lp2826
(lp2827
I4
aI665
aaaa(lp2828
I115
aI21
aI0
a(lp2829
(lp2830
I5
aI624
aaaa(lp2831
I116
aI22
aI1
a(lp2832
(lp2833
I10
aI656
aaaa(lp2834
I117
aI23
aI1
a(lp2835
(lp2836
I2
aI552
aaaa(lp2837
I118
aI24
aI0
a(lp2838
(lp2839
I3
aI436
aaaa(lp2840
I119
aI25
aI0
a(lp2841
(lp2842
I11
aI294
aaaa(lp2843
I120
aI26
aI0
a(lp2844
(lp2845
I9
aI408
aaaa(lp2846
I121
aI27
aI1
a(lp2847
(lp2848
I1
aI419
aaaa(lp2849
I122
aI28
aI0
a(lp2850
(lp2851
I8
aI270
aaaa(lp2852
I123
aI29
aI0
a(lp2853
(lp2854
I5
aI276
aaaa(lp2855
I124
aI30
aI0
a(lp2856
(lp2857
I6
aI206
aaaa(lp2858
I125
aI31
aI0
a(lp2859
(lp2860
I4
aI222
aaaa(lp2861
I126
aI32
aI0
a(lp2862
(lp2863
I11
aI127
aaaa(lp2864
I127
aI33
aI0
a(lp2865
(lp2866
I11
aI101
aaaa(lp2867
I128
aI34
aI0
a(lp2868
(lp2869
I5
aI13
aaaa(lp2870
I129
aI35
aI0
a(lp2871
(lp2872
I7
aI83
aaaa(lp2873
I130
aI36
aI0
a(lp2874
(lp2875
I2
aI25
aaaa(lp2876
I131
aI37
aI0
a(lp2877
(lp2878
I8
aI1293
aaaa(lp2879
I132
aI38
aI0
a(lp2880
(lp2881
I3
aI1119
aaaa(lp2882
I133
aI39
aI0
a(lp2883
(lp2884
I6
aI1036
aaaa(lp2885
I134
aI40
aI0
a(lp2886
(lp2887
I8
aI981
aaaa(lp2888
I135
aI41
aI0
a(lp2889
(lp2890
I10
aI995
aaaa(lp2891
I136
aI42
aI1
a(lp2892
(lp2893
I5
aI952
aaaa(lp2894
I137
aI43
aI0
a(lp2895
(lp2896
I9
aI786
aa(lp2897
I9
aI132
aaaa(lp2898
I138
aI44
aI0
a(lp2899
(lp2900
I11
aI885
aaaa(lp2901
I139
aI45
aI0
a(lp2902
(lp2903
I9
aI825
aaaa(lp2904
I140
aI46
aI0
a(lp2905
(lp2906
I5
aI909
aaaa(lp2907
I141
aI47
aI0
a(lp2908
(lp2909
I7
aI864
aaaa(lp2910
I142
aI48
aI0
a(lp2911
(lp2912
I5
aI673
aaaa(lp2913
I143
aI49
aI0
a(lp2914
(lp2915
I10
aI819
aaaa(lp2916
I144
aI50
aI0
a(lp2917
(lp2918
I8
aI717
aaaa(lp2919
I145
aI51
aI0
a(lp2920
(lp2921
I3
aI764
aaaa(lp2922
I146
aI52
aI0
a(lp2923
(lp2924
I11
aI715
aaaa(lp2925
I147
aI53
aI0
a(lp2926
(lp2927
I10
aI772
aaaa(lp2928
I148
aI54
aI0
a(lp2929
(lp2930
I5
aI610
aaaa(lp2931
I149
aI55
aI0
a(lp2932
(lp2933
I1
aI671
aaaa(lp2934
I150
aI56
aI0
a(lp2935
(lp2936
I10
aI678
aaaa(lp2937
I151
aI57
aI0
a(lp2938
(lp2939
I8
aI659
aaaa(lp2940
I152
aI58
aI0
a(lp2941
(lp2942
I6
aI713
aaaa(lp2943
I153
aI59
aI0
a(lp2944
(lp2945
I2
aI257
aaaa(lp2946
I154
aI60
aI0
a(lp2947
(lp2948
I2
aI300
aaaa(lp2949
I155
aI61
aI0
a(lp2950
(lp2951
I6
aI22
aa(lp2952
I6
aI1388
aaaa(lp2953
I156
aI62
aI0
a(lp2954
(lp2955
I6
aI203
aaaa(lp2956
I157
aI63
aI0
a(lp2957
(lp2958
I8
aI107
aaaa(lp2959
I158
aI64
aI0
a(lp2960
(lp2961
I6
aI1277
aaaa(lp2962
I159
aI65
aI0
a(lp2963
(lp2964
I6
aI64
aaaa(lp2965
I160
aI66
aI0
a(lp2966
(lp2967
I7
aI1274
aaaa(lp2968
I161
aI67
aI0
a(lp2969
(lp2970
I3
aI1238
aaaa(lp2971
I162
aI68
aI0
a(lp2972
(lp2973
I3
aI1235
aaaa(lp2974
I163
aI69
aI0
a(lp2975
(lp2976
I3
aI1100
aaaa(lp2977
I164
aI70
aI0
a(lp2978
(lp2979
I9
aI1145
aaaa(lp2980
I165
aI71
aI0
a(lp2981
(lp2982
I2
aI1001
aaaa(lp2983
I166
aI72
aI0
a(lp2984
(lp2985
I9
aI1000
aaaa(lp2986
I167
aI73
aI0
a(lp2987
(lp2988
I10
aI1128
aaaa(lp2989
I168
aI74
aI0
a(lp2990
(lp2991
I11
aI868
aaaa(lp2992
I169
aI75
aI0
a(lp2993
(lp2994
I9
aI795
aaaa(lp2995
I170
aI76
aI0
a(lp2996
(lp2997
I7
aI693
aaaa(lp2998
I171
aI77
aI0
a(lp2999
(lp3000
I10
aI802
aaaa(lp3001
I172
aI78
aI0
a(lp3002
(lp3003
I6
aI841
aaaa(lp3004
I173
aI79
aI0
a(lp3005
(lp3006
I2
aI675
aaaa(lp3007
I174
aI80
aI0
a(lp3008
(lp3009
I10
aI549
aaaa(lp3010
I175
aI81
aI0
a(lp3011
(lp3012
I2
aI786
aaaa(lp3013
I176
aI82
aI0
a(lp3014
(lp3015
I7
aI634
aaaa(lp3016
I177
aI83
aI0
a(lp3017
(lp3018
I4
aI478
aaaa(lp3019
I178
aI84
aI1
a(lp3020
(lp3021
I4
aI508
aaaa(lp3022
I179
aI85
aI0
a(lp3023
(lp3024
I10
aI432
aaaa(lp3025
I180
aI86
aI0
a(lp3026
(lp3027
I6
aI493
aaaa(lp3028
I181
aI87
aI0
a(lp3029
(lp3030
I2
aI515
aaaa(lp3031
I182
aI88
aI0
a(lp3032
(lp3033
I9
aI390
aaaa(lp3034
I183
aI89
aI0
a(lp3035
(lp3036
I3
aI259
aaaa(lp3037
I184
aI90
aI0
a(lp3038
(lp3039
I10
aI180
aaaa(lp3040
I185
aI91
aI0
a(lp3041
(lp3042
I6
aI238
aaaa(lp3043
I186
aI92
aI0
a(lp3044
(lp3045
I5
aI38
aaaa(lp3046
I187
aI93
aI0
a(lp3047
(lp3048
I2
aI93
aaaa(lp3049
I188
aI94
aI1
a(lp3050
(lp3051
I3
aI1324
aaaa(lp3052
I189
aI95
aI0
a(lp3053
(lp3054
I4
aI1304
aaaa(lp3055
I190
aI96
aI0
a(lp3056
(lp3057
I6
aI593
aa(lp3058
I10
aI744
aaaa(lp3059
I191
aI97
aI0
a(lp3060
(lp3061
I7
aI1275
aaaa(lp3062
I192
aI98
aI0
a(lp3063
(lp3064
I4
aI1210
aaaa(lp3065
I193
aI99
aI0
a(lp3066
(lp3067
I9
aI326
aa(lp3068
I10
aI793
aaaa(lp3069
I194
aI100
aI0
a(lp3070
(lp3071
I3
aI1056
aaaa(lp3072
I195
aI101
aI0
a(lp3073
(lp3074
I9
aI1169
aaaa(lp3075
I196
aI102
aI0
a(lp3076
(lp3077
I4
aI890
aaaa(lp3078
I197
aI103
aI0
a(lp3079
(lp3080
I5
aI1029
aaaa(lp3081
I198
aI104
aI1
a(lp3082
(lp3083
I8
aI998
aaaa(lp3084
I199
aI105
aI0
a(lp3085
(lp3086
I7
aI929
aaaa(lp3087
I200
aI106
aI0
a(lp3088
(lp3089
I5
aI810
aaaa(lp3090
I201
aI107
aI1
a(lp3091
(lp3092
I8
aI733
aaaa(lp3093
I202
aI108
aI0
a(lp3094
(lp3095
I4
aI106
aa(lp3096
I5
aI761
aa(lp3097
I9
aI22
aaaa(lp3098
I203
aI109
aI0
a(lp3099
(lp3100
I7
aI673
aaaa(lp3101
I204
aI110
aI1
a(lp3102
(lp3103
I8
aI715
aaaa(lp3104
I205
aI111
aI-1
a(lp3105
aa(lp3106
I206
aI112
aI0
a(lp3107
(lp3108
I2
aI1342
aaaa(lp3109
I207
aI113
aI0
a(lp3110
(lp3111
I11
aI647
aaaa(lp3112
I208
aI114
aI0
a(lp3113
(lp3114
I2
aI684
aaaa(lp3115
I209
aI115
aI1
a(lp3116
(lp3117
I8
aI513
aaaa(lp3118
I210
aI116
aI0
a(lp3119
(lp3120
I4
aI486
aaaa(lp3121
I211
aI117
aI0
a(lp3122
(lp3123
I3
aI383
aaaa(lp3124
I212
aI12
aI0
a(lp3125
(lp3126
I7
aI311
aaaa(lp3127
I213
aI13
aI0
a(lp3128
(lp3129
I11
aI354
aaaa(lp3130
I214
aI14
aI0
a(lp3131
(lp3132
I10
aI352
aaaa(lp3133
I215
aI15
aI0
a(lp3134
(lp3135
I3
aI287
aaaa(lp3136
I216
aI16
aI0
a(lp3137
(lp3138
I6
aI280
aaaa(lp3139
I217
aI17
aI0
a(lp3140
(lp3141
I11
aI117
aaaa(lp3142
I218
aI18
aI0
a(lp3143
(lp3144
I4
aI49
aaaa(lp3145
I219
aI19
aI0
a(lp3146
(lp3147
I11
aI1258
aaaa(lp3148
I220
aI20
aI0
a(lp3149
(lp3150
I4
aI1313
aaaa(lp3151
I221
aI21
aI0
a(lp3152
(lp3153
I5
aI1162
aaaa(lp3154
I222
aI22
aI1
a(lp3155
(lp3156
I3
aI1199
aa(lp3157
I10
aI121
aaaa(lp3158
I223
aI23
aI0
a(lp3159
(lp3160
I2
aI1168
aaaa(lp3161
I224
aI24
aI0
a(lp3162
(lp3163
I3
aI1040
aaaa(lp3164
I225
aI25
aI0
a(lp3165
(lp3166
I11
aI866
aaaa(lp3167
I226
aI26
aI0
a(lp3168
(lp3169
I9
aI998
aaaa(lp3170
I227
aI27
aI0
a(lp3171
(lp3172
I8
aI1012
aaaa(lp3173
I228
aI28
aI0
a(lp3174
(lp3175
I8
aI911
aaaa(lp3176
I229
aI29
aI0
a(lp3177
(lp3178
I5
aI847
aaaa(lp3179
I230
aI30
aI0
a(lp3180
(lp3181
I6
aI745
aaaa(lp3182
I231
aI31
aI0
a(lp3183
(lp3184
I4
aI732
aaaa(lp3185
I232
aI32
aI0
a(lp3186
(lp3187
I11
aI681
aaaa(lp3188
I233
aI33
aI0
a(lp3189
(lp3190
I11
aI700
aaaa(lp3191
I234
aI34
aI0
a(lp3192
(lp3193
I5
aI693
aaaa(lp3194
I235
aI35
aI0
a(lp3195
(lp3196
I7
aI726
aaaa(lp3197
I236
aI36
aI0
a(lp3198
(lp3199
I2
aI647
aaaa(lp3200
I237
aI37
aI0
a(lp3201
(lp3202
I8
aI586
aaaa(lp3203
I238
aI38
aI0
a(lp3204
(lp3205
I3
aI398
aaaa(lp3206
I239
aI39
aI0
a(lp3207
(lp3208
I6
aI241
aaaa(lp3209
I240
aI40
aI0
a(lp3210
(lp3211
I8
aI279
aaaa(lp3212
I241
aI41
aI0
a(lp3213
(lp3214
I10
aI287
aaaa(lp3215
I242
aI42
aI0
a(lp3216
(lp3217
I5
aI262
aaaa(lp3218
I243
aI43
aI0
a(lp3219
(lp3220
I9
aI322
aaaa(lp3221
I244
aI44
aI0
a(lp3222
(lp3223
I11
aI291
aaaa(lp3224
I245
aI45
aI0
a(lp3225
(lp3226
I9
aI43
aaaa(lp3227
I246
aI46
aI0
a(lp3228
(lp3229
I5
aI62
aaaa(lp3230
I247
aI47
aI0
a(lp3231
(lp3232
I7
aI1381
aaaa(lp3233
I248
aI48
aI0
a(lp3234
(lp3235
I5
aI1273
aaaa(lp3236
I249
aI49
aI0
a(lp3237
(lp3238
I10
aI71
aaaa(lp3239
I250
aI50
aI0
a(lp3240
(lp3241
I8
aI1312
aaaa(lp3242
I251
aI51
aI0
a(lp3243
(lp3244
I3
aI1385
aaaa(lp3245
I252
aI52
aI0
a(lp3246
(lp3247
I11
aI1331
aaaa(lp3248
I253
aI53
aI0
a(lp3249
(lp3250
I10
aI22
aa(lp3251
I10
aI230
aaaa(lp3252
I254
aI54
aI0
a(lp3253
(lp3254
I5
aI99
aaaa(lp3255
I255
aI55
aI0
a(lp3256
(lp3257
I4
aI276
aaaa(lp3258
I256
aI56
aI0
a(lp3259
(lp3260
I6
aI202
aaaa(lp3261
I257
aI57
aI0
a(lp3262
(lp3263
I8
aI190
aaaa(lp3264
I258
aI58
aI0
a(lp3265
(lp3266
I2
aI110
aaaa(lp3267
I259
aI59
aI0
a(lp3268
(lp3269
I2
aI792
aaaa(lp3270
I260
aI60
aI0
a(lp3271
(lp3272
I2
aI930
aaaa(lp3273
I261
aI61
aI0
a(lp3274
(lp3275
I6
aI640
aaaa(lp3276
I262
aI62
aI0
a(lp3277
(lp3278
I6
aI816
aaaa(lp3279
I263
aI63
aI0
a(lp3280
(lp3281
I5
aI115
aa(lp3282
I8
aI668
aaaa(lp3283
I264
aI64
aI0
a(lp3284
(lp3285
I6
aI525
aaaa(lp3286
I265
aI65
aI1
a(lp3287
(lp3288
I6
aI701
aaaa(lp3289
I266
aI66
aI0
a(lp3290
(lp3291
I7
aI666
aaaa(lp3292
I267
aI67
aI0
a(lp3293
(lp3294
I3
aI475
aaaa(lp3295
I268
aI68
aI0
a(lp3296
(lp3297
I11
aI557
aaaa(lp3298
I269
aI69
aI0
a(lp3299
(lp3300
I3
aI342
aaaa(lp3301
I270
aI70
aI0
a(lp3302
(lp3303
I9
aI47
aa(lp3304
I10
aI368
aaaa(lp3305
I271
aI71
aI0
a(lp3306
(lp3307
I2
aI234
aaaa(lp3308
I272
aI72
aI0
a(lp3309
(lp3310
I10
aI374
aaaa(lp3311
I273
aI73
aI0
a(lp3312
(lp3313
I8
aI467
aaaa(lp3314
I274
aI74
aI0
a(lp3315
(lp3316
I11
aI167
aaaa(lp3317
I275
aI75
aI0
a(lp3318
(lp3319
I9
aI180
aaaa(lp3320
I276
aI76
aI0
a(lp3321
(lp3322
I7
aI1298
aaaa(lp3323
I277
aI77
aI0
a(lp3324
(lp3325
I10
aI134
aaaa(lp3326
I278
aI78
aI0
a(lp3327
(lp3328
I6
aI193
aaaa(lp3329
I279
aI79
aI0
a(lp3330
(lp3331
I2
aI14
aaaa(lp3332
I280
aI80
aI0
a(lp3333
(lp3334
I10
aI1122
aaaa(lp3335
I281
aI81
aI0
a(lp3336
(lp3337
I11
aI1296
aa(lp3338
I9
aI39
aaaa(lp3339
I282
aI82
aI0
a(lp3340
(lp3341
I7
aI41
aaaa(lp3342
I283
aI83
aI0
a(lp3343
(lp3344
I4
aI1031
aaaa(lp3345
I284
aI84
aI0
a(lp3346
(lp3347
I10
aI1129
aaaa(lp3348
I285
aI85
aI0
a(lp3349
(lp3350
I10
aI1046
aaaa(lp3351
I286
aI86
aI0
a(lp3352
(lp3353
I7
aI1189
aaaa(lp3354
I287
aI87
aI0
a(lp3355
(lp3356
I4
aI1145
aaaa(lp3357
I288
aI88
aI0
a(lp3358
(lp3359
I9
aI1004
aaaa(lp3360
I289
aI89
aI0
a(lp3361
(lp3362
I10
aI950
aaaa(lp3363
I290
aI90
aI0
a(lp3364
(lp3365
I10
aI815
aaaa(lp3366
I291
aI91
aI1
a(lp3367
(lp3368
I6
aI713
aaaa(lp3369
I292
aI92
aI0
a(lp3370
(lp3371
I5
aI587
aaaa(lp3372
I293
aI93
aI0
a(lp3373
(lp3374
I6
aI807
aaaa(lp3375
I294
aI94
aI0
a(lp3376
(lp3377
I3
aI464
aaaa(lp3378
I295
aI95
aI1
a(lp3379
(lp3380
I6
aI665
aaaa(lp3381
I296
aI96
aI0
a(lp3382
(lp3383
I6
aI575
aaaa(lp3384
I297
aI97
aI0
a(lp3385
(lp3386
I7
aI118
aa(lp3387
I9
aI418
aaaa(lp3388
I298
aI98
aI0
a(lp3389
(lp3390
I4
aI447
aaaa(lp3391
I299
aI99
aI0
a(lp3392
(lp3393
I9
aI426
aaaa(lp3394
I300
aI100
aI0
a(lp3395
(lp3396
I9
aI315
aaaa(lp3397
I301
aI101
aI0
a(lp3398
(lp3399
I9
aI409
aaaa(lp3400
I302
aI102
aI1
a(lp3401
(lp3402
I4
aI181
aaaa(lp3403
I303
aI103
aI0
a(lp3404
(lp3405
I5
aI226
aaaa(lp3406
I304
aI104
aI0
a(lp3407
(lp3408
I8
aI242
aaaa(lp3409
I305
aI105
aI0
a(lp3410
(lp3411
I4
aI219
aaaa(lp3412
I306
aI106
aI0
a(lp3413
(lp3414
I5
aI6
aa(lp3415
I5
aI1348
aaaa(lp3416
I307
aI107
aI1
a(lp3417
(lp3418
I8
aI1263
aaaa(lp3419
I308
aI108
aI1
a(lp3420
(lp3421
I1
aI377
aaaa(lp3422
I309
aI109
aI0
a(lp3423
(lp3424
I7
aI1
aa(lp3425
I7
aI1348
aaaa(lp3426
I310
aI110
aI0
a(lp3427
(lp3428
I8
aI59
aaaa(lp3429
I311
aI111
aI0
a(lp3430
(lp3431
I2
aI1236
aaaa(lp3432
I312
aI112
aI0
a(lp3433
(lp3434
I2
aI1286
aaaa(lp3435
I313
aI113
aI0
a(lp3436
(lp3437
I11
aI1295
aaaa(lp3438
I314
aI114
aI1
a(lp3439
(lp3440
I2
aI34
aaaa(lp3441
I315
aI115
aI1
a(lp3442
(lp3443
I8
aI1180
aaaa(lp3444
I316
aI116
aI0
a(lp3445
(lp3446
I4
aI1136
aaaa(lp3447
I317
aI117
aI0
a(lp3448
(lp3449
I3
aI1047
aaaa(lp3450
I318
aI12
aI0
a(lp3451
(lp3452
I7
aI825
aaaa(lp3453
I319
aI13
aI0
a(lp3454
(lp3455
I11
aI888
aaaa(lp3456
I320
aI14
aI0
a(lp3457
(lp3458
I10
aI806
aaaa(lp3459
I321
aI15
aI0
a(lp3460
(lp3461
I3
aI910
aaaa(lp3462
I322
aI16
aI0
a(lp3463
(lp3464
I6
aI972
aaaa(lp3465
I323
aI17
aI0
a(lp3466
(lp3467
I11
aI727
aaaa(lp3468
I324
aI18
aI1
a(lp3469
(lp3470
I4
aI659
aaaa(lp3471
I325
aI19
aI1
a(lp3472
(lp3473
I11
aI600
aaaa(lp3474
I326
aI20
aI0
a(lp3475
(lp3476
I4
aI516
aaaa(lp3477
I327
aI21
aI0
a(lp3478
(lp3479
I5
aI318
aaaa(lp3480
I328
aI22
aI0
a(lp3481
(lp3482
I3
aI533
aaaa(lp3483
I329
aI23
aI0
a(lp3484
(lp3485
I2
aI468
aaaa(lp3486
I330
aI24
aI0
a(lp3487
(lp3488
I3
aI233
aaaa(lp3489
I331
aI25
aI1
a(lp3490
(lp3491
I11
aI256
aaaa(lp3492
I332
aI26
aI0
a(lp3493
(lp3494
I9
aI300
aaaa(lp3495
I333
aI27
aI0
a(lp3496
(lp3497
I5
aI417
aaaa(lp3498
I334
aI28
aI1
a(lp3499
(lp3500
I8
aI177
aaaa(lp3501
I335
aI29
aI0
a(lp3502
(lp3503
I5
aI186
aaaa(lp3504
I336
aI30
aI0
a(lp3505
(lp3506
I6
aI1262
aaaa(lp3507
I337
aI31
aI0
a(lp3508
(lp3509
I4
aI137
aaaa(lp3510
I338
aI32
aI0
a(lp3511
(lp3512
I11
aI1240
aaaa(lp3513
I339
aI33
aI0
a(lp3514
(lp3515
I11
aI20
aaaa(lp3516
I340
aI34
aI1
a(lp3517
(lp3518
I1
aI71
aaaa(lp3519
I341
aI35
aI0
a(lp3520
(lp3521
I7
aI1289
aaaa(lp3522
I342
aI36
aI0
a(lp3523
(lp3524
I2
aI1148
aaaa(lp3525
I343
aI37
aI1
a(lp3526
(lp3527
I8
aI1147
aaaa(lp3528
I344
aI38
aI0
a(lp3529
(lp3530
I3
aI918
aaaa(lp3531
I345
aI39
aI0
a(lp3532
(lp3533
I6
aI1080
aaaa(lp3534
I346
aI40
aI1
a(lp3535
(lp3536
I8
aI888
aaaa(lp3537
I347
aI41
aI0
a(lp3538
(lp3539
I10
aI951
aaaa(lp3540
I348
aI42
aI0
a(lp3541
(lp3542
I5
aI769
aaaa(lp3543
I349
aI43
aI0
a(lp3544
(lp3545
I9
aI949
aaaa(lp3546
I350
aI44
aI0
a(lp3547
(lp3548
I11
aI736
aaaa(lp3549
I351
aI45
aI0
a(lp3550
(lp3551
I9
aI336
aa(lp3552
I9
aI411
aaaa(lp3553
I352
aI46
aI0
a(lp3554
(lp3555
I5
aI760
aaaa(lp3556
I353
aI47
aI1
a(lp3557
(lp3558
I7
aI562
aaaa(lp3559
I354
aI48
aI0
a(lp3560
(lp3561
I5
aI354
aaaa(lp3562
I355
aI49
aI0
a(lp3563
(lp3564
I10
aI816
aaaa(lp3565
I356
aI50
aI1
a(lp3566
(lp3567
I8
aI432
aaaa(lp3568
I357
aI51
aI0
a(lp3569
(lp3570
I3
aI533
aaaa(lp3571
I358
aI52
aI0
a(lp3572
(lp3573
I11
aI604
aaaa(lp3574
I359
aI53
aI0
a(lp3575
(lp3576
I10
aI1051
aa(lp3577
I10
aI194
aaaa(lp3578
I360
aI54
aI0
a(lp3579
(lp3580
I5
aI928
aaaa(lp3581
I361
aI55
aI0
a(lp3582
(lp3583
I4
aI1120
aaaa(lp3584
I362
aI56
aI0
a(lp3585
(lp3586
I6
aI1140
aaaa(lp3587
I363
aI57
aI1
a(lp3588
(lp3589
I8
aI1045
aaaa(lp3590
I364
aI58
aI0
a(lp3591
(lp3592
I2
aI1096
aaaa(lp3593
I365
aI59
aI0
a(lp3594
(lp3595
I2
aI15
aa(lp3596
I2
aI1388
aaaa(lp3597
I366
aI60
aI0
a(lp3598
(lp3599
I2
aI180
aaaa(lp3600
I367
aI61
aI0
a(lp3601
(lp3602
I6
aI1201
aaaa(lp3603
I368
aI62
aI0
a(lp3604
(lp3605
I6
aI117
aaaa(lp3606
I369
aI63
aI0
a(lp3607
(lp3608
I5
aI1294
aaaa(lp3609
I370
aI64
aI0
a(lp3610
(lp3611
I6
aI1098
aaaa(lp3612
I371
aI65
aI0
a(lp3613
(lp3614
I6
aI3
aa(lp3615
I8
aI1343
aaaa(lp3616
I372
aI66
aI0
a(lp3617
(lp3618
I10
aI6
aa(lp3619
I7
aI1343
aaaa(lp3620
I373
aI67
aI0
a(lp3621
(lp3622
I8
aI1122
aaaa(lp3623
I374
aI68
aI0
a(lp3624
(lp3625
I3
aI1297
aaaa(lp3626
I375
aI69
aI0
a(lp3627
(lp3628
I3
aI910
aaaa(lp3629
I376
aI70
aI0
a(lp3630
(lp3631
I9
aI952
aaaa(lp3632
I377
aI71
aI0
a(lp3633
(lp3634
I2
aI926
aaaa(lp3635
I378
aI72
aI0
a(lp3636
(lp3637
I9
aI924
aaaa(lp3638
I379
aI73
aI0
a(lp3639
(lp3640
I5
aI1000
aaaa(lp3641
I380
aI74
aI0
a(lp3642
(lp3643
I11
aI819
aaaa(lp3644
I381
aI75
aI0
a(lp3645
(lp3646
I9
aI790
aaaa(lp3647
I382
aI76
aI0
a(lp3648
(lp3649
I7
aI602
aaaa(lp3650
I383
aI77
aI0
a(lp3651
(lp3652
I10
aI787
aaaa(lp3653
I384
aI78
aI0
a(lp3654
(lp3655
I7
aI799
aaaa(lp3656
I385
aI79
aI0
a(lp3657
(lp3658
I2
aI693
aaaa(lp3659
I386
aI80
aI0
a(lp3660
(lp3661
I10
aI421
aaaa(lp3662
I387
aI81
aI0
a(lp3663
(lp3664
I5
aI573
aaaa(lp3665
I388
aI82
aI0
a(lp3666
(lp3667
I7
aI719
aaaa(lp3668
I389
aI83
aI0
a(lp3669
(lp3670
I4
aI231
aaaa(lp3671
I390
aI84
aI0
a(lp3672
(lp3673
I4
aI11
aa(lp3674
I10
aI422
aaaa(lp3675
I391
aI85
aI0
a(lp3676
(lp3677
I10
aI294
aaaa(lp3678
I392
aI86
aI0
a(lp3679
(lp3680
I6
aI650
aaaa(lp3681
I393
aI87
aI0
a(lp3682
(lp3683
I3
aI359
aaaa(lp3684
I394
aI88
aI0
a(lp3685
(lp3686
I9
aI262
aaaa(lp3687
I395
aI89
aI0
a(lp3688
(lp3689
I3
aI310
aaaa(lp3690
I396
aI90
aI0
a(lp3691
(lp3692
I10
aI17
aaaa(lp3693
I397
aI91
aI0
a(lp3694
(lp3695
I6
aI57
aaaa(lp3696
I398
aI92
aI0
a(lp3697
(lp3698
I11
aI1287
aaaa(lp3699
I399
aI93
aI0
a(lp3700
(lp3701
I3
aI113
aaaasg1227
(lp3702
(lp3703
I181768
aI115531
aa(lp3704
I184548
aI137093
aa(lp3705
I184548
aI102632
aa(lp3706
I188527
aI136277
aa(lp3707
I184548
aI147442
aa(lp3708
I147784
aI74306
aa(lp3709
I181088
aI74685
aa(lp3710
I167678
aI98116
aa(lp3711
I179351
aI79137
aa(lp3712
I181990
aI88799
aasg1239
(lp3713
I1614233
aI222898
asg1241
(lp3714
F0.0
aF0.0
aF0.0
aF0.0
aF0.0
aF0.0
aF0.0
aF0.0
aF0.0
aF0.0
aF0.0
aF0.0
aF0.0
aF0.0
aF0.0
aF0.0
aF-0.2222222222222222
aF0.0
aF0.0
aF0.0
aF0.0
aF0.0
aF0.0
aF0.0
aF0.0
aF-0.2222222222222222
aF0.0
aF0.0
aF-0.2222222222222222
aF0.0
aF0.0
aF0.0
aF0.0
aF0.0
aF0.0
aF0.0
aF0.0
aF0.0
aF-0.2222222222222222
aF0.0
aF0.0
aF0.0
aF0.0
aF0.0
aF0.0
aF-0.2222222222222222
aF0.0
aF0.0
aF0.0
aF0.0
aF0.0
aF0.0
aF0.0
aF0.0
aF0.0
aF0.0
aF0.0
aF0.0
aF0.0
aF0.0
aF0.0
aF0.0
aF0.0
aF0.0
aF0.0
aF0.0
aF0.0
aF0.0
aF0.0
aF0.0
aF0.0
aF0.0
aF0.0
aF0.0
aF0.0
aF0.0
aF0.0
aF0.0
aF0.0
aF0.0
aF0.0
aF0.0
aF0.0
aF0.0
aF0.0
aF0.0
aF0.0
aF0.0
aF0.0
aF0.0
aF0.0
aF0.0
aF-0.2222222222222222
aF0.0
aF0.0
aF0.7777777777777778
aF0.0
aF0.0
aF-0.2222222222222222
aF0.0
aF0.0
aF0.0
aF0.0
aF0.7777777777777778
aF0.0
aF0.0
assI3
(dp3715
g2
(lp3716
(lp3717
I14907
aI0
aa(lp3718
I14740
aI0
aa(lp3719
I14820
aI0
aa(lp3720
I17830
aI0
aa(lp3721
I17640
aI0
aa(lp3722
I17821
aI0
aa(lp3723
I17455
aI0
aa(lp3724
I17667
aI0
aa(lp3725
I17797
aI12
aa(lp3726
I17444
aI0
aa(lp3727
I17652
aI0
aa(lp3728
I17710
aI2
aa(lp3729
I17429
aI0
aa(lp3730
I14609
aI0
aa(lp3731
I14641
aI0
aa(lp3732
I14635
aI0
aa(lp3733
I16778
aI0
aa(lp3734
I16896
aI0
aa(lp3735
I16688
aI5
aa(lp3736
I16903
aI0
aa(lp3737
I16658
aI0
aa(lp3738
I16731
aI0
aa(lp3739
I16850
aI0
aa(lp3740
I16780
aI0
aa(lp3741
I17068
aI0
aa(lp3742
I16939
aI0
aa(lp3743
I16784
aI5
aa(lp3744
I16654
aI0
aa(lp3745
I16428
aI0
aa(lp3746
I16415
aI0
aa(lp3747
I16540
aI0
aa(lp3748
I15195
aI0
aa(lp3749
I15423
aI0
aa(lp3750
I18441
aI0
aa(lp3751
I18327
aI0
aa(lp3752
I18367
aI0
aa(lp3753
I18238
aI0
aa(lp3754
I18655
aI0
aa(lp3755
I18260
aI0
aa(lp3756
I18450
aI0
aa(lp3757
I18501
aI0
aa(lp3758
I17893
aI782
aa(lp3759
I17826
aI709
aa(lp3760
I17940
aI653
aa(lp3761
I17663
aI720
aa(lp3762
I18009
aI716
aa(lp3763
I18081
aI652
aa(lp3764
I17852
aI0
aa(lp3765
I18012
aI0
aa(lp3766
I18087
aI0
aa(lp3767
I18183
aI0
aa(lp3768
I17528
aI0
aa(lp3769
I17180
aI0
aa(lp3770
I17373
aI0
aa(lp3771
I17273
aI0
aa(lp3772
I17505
aI0
aa(lp3773
I17316
aI1
aa(lp3774
I17319
aI0
aa(lp3775
I17404
aI0
aa(lp3776
I17391
aI0
aa(lp3777
I17414
aI0
aa(lp3778
I17419
aI0
aa(lp3779
I17494
aI0
aa(lp3780
I17266
aI0
aa(lp3781
I17432
aI0
aa(lp3782
I17716
aI0
aa(lp3783
I17311
aI0
aa(lp3784
I17331
aI0
aa(lp3785
I17637
aI0
aa(lp3786
I17559
aI0
aa(lp3787
I17544
aI0
aa(lp3788
I17465
aI0
aa(lp3789
I17469
aI0
aa(lp3790
I17432
aI0
aa(lp3791
I17654
aI0
aa(lp3792
I17491
aI0
aa(lp3793
I17527
aI0
aa(lp3794
I17725
aI0
aa(lp3795
I17595
aI0
aa(lp3796
I17502
aI0
aa(lp3797
I17661
aI0
aa(lp3798
I17479
aI0
aa(lp3799
I17571
aI0
aa(lp3800
I17318
aI0
aa(lp3801
I17293
aI0
aa(lp3802
I17314
aI0
aa(lp3803
I17410
aI0
aa(lp3804
I17373
aI2
aa(lp3805
I17673
aI0
aa(lp3806
I17440
aI0
aa(lp3807
I17608
aI0
aa(lp3808
I17439
aI0
aa(lp3809
I17329
aI0
aa(lp3810
I17244
aI0
aa(lp3811
I17376
aI0
aa(lp3812
I17535
aI3
aa(lp3813
I17758
aI0
aa(lp3814
I17298
aI0
aa(lp3815
I17359
aI0
aa(lp3816
I17457
aI1479
aa(lp3817
I17440
aI1465
aa(lp3818
I17672
aI6
aa(lp3819
I17469
aI0
aa(lp3820
I17996
aI0
aa(lp3821
I18111
aI0
aa(lp3822
I17815
aI0
aasg110
(lp3823
F0.0
aF0.0
aF0.0
aF0.0
aF0.0
aF0.0
aF0.0
aF0.0
aF0.0
aF0.0
asg112
(lp3824
(lp3825
I36
aI48
aI1
a(lp3826
(lp3827
I1
aI155
aaaa(lp3828
I37
aI49
aI1
a(lp3829
(lp3830
I1
aI97
aaaa(lp3831
I38
aI50
aI0
a(lp3832
(lp3833
I8
aI1397
aaaa(lp3834
I39
aI51
aI0
a(lp3835
(lp3836
I3
aI1360
aaaa(lp3837
I40
aI52
aI0
a(lp3838
(lp3839
I11
aI1377
aaaa(lp3840
I41
aI53
aI0
a(lp3841
(lp3842
I10
aI1333
aaaa(lp3843
I42
aI54
aI0
a(lp3844
(lp3845
I7
aI1374
aaaa(lp3846
I43
aI55
aI1
a(lp3847
(lp3848
I4
aI1226
aaaa(lp3849
I44
aI56
aI0
a(lp3850
(lp3851
I6
aI1287
aaaa(lp3852
I45
aI57
aI0
a(lp3853
(lp3854
I8
aI1194
aaaa(lp3855
I46
aI58
aI0
a(lp3856
(lp3857
I2
aI1106
aaaa(lp3858
I47
aI59
aI0
a(lp3859
(lp3860
I2
aI1018
aaaa(lp3861
I48
aI60
aI0
a(lp3862
(lp3863
I2
aI938
aaaa(lp3864
I49
aI61
aI0
a(lp3865
(lp3866
I6
aI827
aaaa(lp3867
I50
aI62
aI0
a(lp3868
(lp3869
I6
aI907
aaaa(lp3870
I51
aI63
aI1
a(lp3871
(lp3872
I8
aI844
aaaa(lp3873
I52
aI64
aI1
a(lp3874
(lp3875
I1
aI854
aaaa(lp3876
I53
aI65
aI0
a(lp3877
(lp3878
I6
aI617
aaaa(lp3879
I54
aI66
aI0
a(lp3880
(lp3881
I7
aI735
aaaa(lp3882
I55
aI67
aI0
a(lp3883
(lp3884
I3
aI598
aaaa(lp3885
I56
aI68
aI0
a(lp3886
(lp3887
I3
aI584
aaaa(lp3888
I57
aI69
aI0
a(lp3889
(lp3890
I3
aI570
aaaa(lp3891
I58
aI70
aI0
a(lp3892
(lp3893
I9
aI545
aaaa(lp3894
I59
aI71
aI0
a(lp3895
(lp3896
I2
aI446
aaaa(lp3897
I60
aI72
aI0
a(lp3898
(lp3899
I9
aI485
aaaa(lp3900
I61
aI73
aI0
a(lp3901
(lp3902
I10
aI377
aaaa(lp3903
I62
aI74
aI0
a(lp3904
(lp3905
I11
aI364
aaaa(lp3906
I63
aI75
aI0
a(lp3907
(lp3908
I9
aI230
aaaa(lp3909
I64
aI76
aI0
a(lp3910
(lp3911
I7
aI269
aaaa(lp3912
I65
aI77
aI1
a(lp3913
(lp3914
I10
aI168
aaaa(lp3915
I66
aI78
aI1
a(lp3916
(lp3917
I7
aI130
aaaa(lp3918
I67
aI79
aI0
a(lp3919
(lp3920
I2
aI76
aaaa(lp3921
I68
aI80
aI0
a(lp3922
(lp3923
I10
aI1295
aaaa(lp3924
I69
aI81
aI0
a(lp3925
(lp3926
I5
aI16
aa(lp3927
I5
aI1343
aaaa(lp3928
I70
aI82
aI0
a(lp3929
(lp3930
I10
aI54
aaaa(lp3931
I71
aI83
aI0
a(lp3932
(lp3933
I4
aI1243
aaaa(lp3934
I72
aI84
aI0
a(lp3935
(lp3936
I4
aI1240
aaaa(lp3937
I73
aI85
aI0
a(lp3938
(lp3939
I10
aI1176
aaaa(lp3940
I74
aI86
aI0
a(lp3941
(lp3942
I6
aI1057
aaaa(lp3943
I75
aI87
aI0
a(lp3944
(lp3945
I3
aI1068
aaaa(lp3946
I76
aI88
aI0
a(lp3947
(lp3948
I9
aI973
aaaa(lp3949
I77
aI89
aI0
a(lp3950
(lp3951
I3
aI977
aaaa(lp3952
I78
aI90
aI0
a(lp3953
(lp3954
I10
aI878
aaaa(lp3955
I79
aI91
aI0
a(lp3956
(lp3957
I6
aI889
aaaa(lp3958
I80
aI92
aI0
a(lp3959
(lp3960
I5
aI891
aaaa(lp3961
I81
aI93
aI0
a(lp3962
(lp3963
I2
aI901
aaaa(lp3964
I82
aI94
aI0
a(lp3965
(lp3966
I10
aI837
aaaa(lp3967
I83
aI95
aI1
a(lp3968
(lp3969
I4
aI802
aaaa(lp3970
I84
aI96
aI0
a(lp3971
(lp3972
I10
aI301
aa(lp3973
I9
aI471
aaaa(lp3974
I85
aI97
aI0
a(lp3975
(lp3976
I7
aI612
aaaa(lp3977
I86
aI98
aI0
a(lp3978
(lp3979
I4
aI616
aaaa(lp3980
I87
aI99
aI0
a(lp3981
(lp3982
I9
aI469
aaaa(lp3983
I88
aI100
aI0
a(lp3984
(lp3985
I9
aI545
aaaa(lp3986
I89
aI101
aI1
a(lp3987
(lp3988
I9
aI449
aaaa(lp3989
I90
aI102
aI0
a(lp3990
(lp3991
I4
aI413
aaaa(lp3992
I91
aI103
aI0
a(lp3993
(lp3994
I5
aI399
aaaa(lp3995
I92
aI104
aI1
a(lp3996
(lp3997
I8
aI342
aaaa(lp3998
I93
aI105
aI0
a(lp3999
(lp4000
I7
aI328
aaaa(lp4001
I94
aI106
aI0
a(lp4002
(lp4003
I5
aI240
aaaa(lp4004
I95
aI107
aI1
a(lp4005
(lp4006
I8
aI156
aaaa(lp4007
I96
aI108
aI0
a(lp4008
(lp4009
I6
aI10
aa(lp4010
I6
aI1348
aaaa(lp4011
I97
aI109
aI0
a(lp4012
(lp4013
I7
aI199
aaaa(lp4014
I98
aI110
aI1
a(lp4015
(lp4016
I8
aI32
aaaa(lp4017
I99
aI111
aI0
a(lp4018
(lp4019
I2
aI291
aaaa(lp4020
I100
aI112
aI1
a(lp4021
(lp4022
I1
aI181
aaaa(lp4023
I101
aI113
aI0
a(lp4024
(lp4025
I11
aI691
aa(lp4026
I11
aI647
aaaa(lp4027
I102
aI114
aI0
a(lp4028
(lp4029
I2
aI1227
aaaa(lp4030
I103
aI115
aI1
a(lp4031
(lp4032
I8
aI1162
aaaa(lp4033
I104
aI116
aI0
a(lp4034
(lp4035
I4
aI1219
aaaa(lp4036
I105
aI117
aI0
a(lp4037
(lp4038
I3
aI1182
aaaa(lp4039
I106
aI12
aI0
a(lp4040
(lp4041
I7
aI892
aaaa(lp4042
I107
aI13
aI0
a(lp4043
(lp4044
I11
aI901
aaaa(lp4045
I108
aI14
aI0
a(lp4046
(lp4047
I10
aI813
aaaa(lp4048
I109
aI15
aI1
a(lp4049
(lp4050
I3
aI768
aaaa(lp4051
I110
aI16
aI0
a(lp4052
(lp4053
I6
aI804
aaaa(lp4054
I111
aI17
aI0
a(lp4055
(lp4056
I11
aI793
aaaa(lp4057
I112
aI18
aI0
a(lp4058
(lp4059
I4
aI920
aaaa(lp4060
I113
aI19
aI0
a(lp4061
(lp4062
I11
aI685
aaaa(lp4063
I114
aI20
aI0
a(lp4064
(lp4065
I4
aI579
aaaa(lp4066
I115
aI21
aI0
a(lp4067
(lp4068
I5
aI648
aaaa(lp4069
I116
aI22
aI0
a(lp4070
(lp4071
I3
aI655
aaaa(lp4072
I117
aI23
aI0
a(lp4073
(lp4074
I2
aI535
aaaa(lp4075
I118
aI24
aI0
a(lp4076
(lp4077
I3
aI585
aaaa(lp4078
I119
aI25
aI0
a(lp4079
(lp4080
I11
aI384
aaaa(lp4081
I120
aI26
aI0
a(lp4082
(lp4083
I9
aI228
aaaa(lp4084
I121
aI27
aI0
a(lp4085
(lp4086
I5
aI415
aaaa(lp4087
I122
aI28
aI1
a(lp4088
(lp4089
I8
aI273
aaaa(lp4090
I123
aI29
aI0
a(lp4091
(lp4092
I5
aI198
aaaa(lp4093
I124
aI30
aI1
a(lp4094
(lp4095
I6
aI271
aaaa(lp4096
I125
aI31
aI0
a(lp4097
(lp4098
I4
aI204
aaaa(lp4099
I126
aI32
aI0
a(lp4100
(lp4101
I11
aI83
aaaa(lp4102
I127
aI33
aI0
a(lp4103
(lp4104
I11
aI65
aaaa(lp4105
I128
aI34
aI0
a(lp4106
(lp4107
I5
aI52
aaaa(lp4108
I129
aI35
aI0
a(lp4109
(lp4110
I7
aI40
aaaa(lp4111
I130
aI36
aI0
a(lp4112
(lp4113
I2
aI1177
aaaa(lp4114
I131
aI37
aI1
a(lp4115
(lp4116
I8
aI28
aaaa(lp4117
I132
aI38
aI0
a(lp4118
(lp4119
I3
aI1098
aaaa(lp4120
I133
aI39
aI0
a(lp4121
(lp4122
I6
aI1273
aaaa(lp4123
I134
aI40
aI0
a(lp4124
(lp4125
I8
aI1140
aaaa(lp4126
I135
aI41
aI0
a(lp4127
(lp4128
I10
aI1102
aaaa(lp4129
I136
aI42
aI0
a(lp4130
(lp4131
I5
aI1008
aaaa(lp4132
I137
aI43
aI0
a(lp4133
(lp4134
I9
aI1007
aaaa(lp4135
I138
aI44
aI0
a(lp4136
(lp4137
I11
aI758
aaaa(lp4138
I139
aI45
aI0
a(lp4139
(lp4140
I9
aI834
aaaa(lp4141
I140
aI46
aI0
a(lp4142
(lp4143
I5
aI1022
aaaa(lp4144
I141
aI47
aI0
a(lp4145
(lp4146
I7
aI559
aa(lp4147
I7
aI300
aaaa(lp4148
I142
aI48
aI0
a(lp4149
(lp4150
I5
aI819
aaaa(lp4151
I143
aI49
aI0
a(lp4152
(lp4153
I10
aI739
aaaa(lp4154
I144
aI50
aI0
a(lp4155
(lp4156
I8
aI763
aaaa(lp4157
I145
aI51
aI0
a(lp4158
(lp4159
I3
aI589
aaaa(lp4160
I146
aI52
aI0
a(lp4161
(lp4162
I11
aI593
aaaa(lp4163
I147
aI53
aI0
a(lp4164
(lp4165
I10
aI846
aaaa(lp4166
I148
aI54
aI0
a(lp4167
(lp4168
I7
aI749
aaaa(lp4169
I149
aI55
aI0
a(lp4170
(lp4171
I4
aI535
aaaa(lp4172
I150
aI56
aI0
a(lp4173
(lp4174
I7
aI736
aaaa(lp4175
I151
aI57
aI0
a(lp4176
(lp4177
I8
aI584
aaaa(lp4178
I152
aI58
aI0
a(lp4179
(lp4180
I2
aI376
aaaa(lp4181
I153
aI59
aI0
a(lp4182
(lp4183
I2
aI344
aaaa(lp4184
I154
aI60
aI0
a(lp4185
(lp4186
I2
aI317
aaaa(lp4187
I155
aI61
aI0
a(lp4188
(lp4189
I6
aI198
aaaa(lp4190
I156
aI62
aI0
a(lp4191
(lp4192
I6
aI181
aaaa(lp4193
I157
aI63
aI0
a(lp4194
(lp4195
I8
aI138
aaaa(lp4196
I158
aI64
aI1
a(lp4197
(lp4198
I1
aI213
aaaa(lp4199
I159
aI65
aI0
a(lp4200
(lp4201
I6
aI1261
aaaa(lp4202
I160
aI66
aI0
a(lp4203
(lp4204
I7
aI64
aaaa(lp4205
I161
aI67
aI0
a(lp4206
(lp4207
I3
aI1159
aaaa(lp4208
I162
aI68
aI0
a(lp4209
(lp4210
I3
aI1151
aaaa(lp4211
I163
aI69
aI0
a(lp4212
(lp4213
I11
aI1223
aaaa(lp4214
I164
aI70
aI0
a(lp4215
(lp4216
I9
aI1223
aaaa(lp4217
I165
aI71
aI0
a(lp4218
(lp4219
I2
aI1157
aaaa(lp4220
I166
aI72
aI0
a(lp4221
(lp4222
I9
aI1109
aaaa(lp4223
I167
aI73
aI0
a(lp4224
(lp4225
I10
aI1032
aaaa(lp4226
I168
aI74
aI0
a(lp4227
(lp4228
I11
aI1103
aaaa(lp4229
I169
aI75
aI0
a(lp4230
(lp4231
I9
aI998
aaaa(lp4232
I170
aI76
aI0
a(lp4233
(lp4234
I7
aI886
aaaa(lp4235
I171
aI77
aI0
a(lp4236
(lp4237
I10
aI749
aaaa(lp4238
I172
aI78
aI0
a(lp4239
(lp4240
I6
aI764
aaaa(lp4241
I173
aI79
aI0
a(lp4242
(lp4243
I2
aI696
aaaa(lp4244
I174
aI80
aI0
a(lp4245
(lp4246
I10
aI582
aaaa(lp4247
I175
aI81
aI0
a(lp4248
(lp4249
I5
aI605
aaaa(lp4250
I176
aI82
aI0
a(lp4251
(lp4252
I7
aI554
aaaa(lp4253
I177
aI83
aI0
a(lp4254
(lp4255
I4
aI558
aaaa(lp4256
I178
aI84
aI0
a(lp4257
(lp4258
I4
aI470
aaaa(lp4259
I179
aI85
aI0
a(lp4260
(lp4261
I10
aI482
aaaa(lp4262
I180
aI86
aI0
a(lp4263
(lp4264
I6
aI248
aaaa(lp4265
I181
aI87
aI0
a(lp4266
(lp4267
I3
aI312
aaaa(lp4268
I182
aI88
aI0
a(lp4269
(lp4270
I9
aI309
aaaa(lp4271
I183
aI89
aI0
a(lp4272
(lp4273
I3
aI226
aaaa(lp4274
I184
aI90
aI0
a(lp4275
(lp4276
I10
aI186
aaaa(lp4277
I185
aI91
aI0
a(lp4278
(lp4279
I6
aI151
aaaa(lp4280
I186
aI92
aI0
a(lp4281
(lp4282
I5
aI120
aaaa(lp4283
I187
aI93
aI0
a(lp4284
(lp4285
I2
aI115
aaaa(lp4286
I188
aI94
aI0
a(lp4287
(lp4288
I3
aI111
aaaa(lp4289
I189
aI95
aI0
a(lp4290
(lp4291
I4
aI1299
aaaa(lp4292
I190
aI96
aI0
a(lp4293
(lp4294
I10
aI82
aaaa(lp4295
I191
aI97
aI0
a(lp4296
(lp4297
I7
aI1299
aaaa(lp4298
I192
aI98
aI0
a(lp4299
(lp4300
I4
aI1186
aaaa(lp4301
I193
aI99
aI0
a(lp4302
(lp4303
I9
aI1127
aaaa(lp4304
I194
aI100
aI0
a(lp4305
(lp4306
I9
aI1090
aaaa(lp4307
I195
aI101
aI0
a(lp4308
(lp4309
I11
aI1176
aaaa(lp4310
I196
aI102
aI0
a(lp4311
(lp4312
I4
aI1026
aaaa(lp4313
I197
aI103
aI0
a(lp4314
(lp4315
I5
aI1041
aaaa(lp4316
I198
aI104
aI0
a(lp4317
(lp4318
I8
aI1028
aaaa(lp4319
I199
aI105
aI0
a(lp4320
(lp4321
I7
aI1049
aaaa(lp4322
I200
aI106
aI0
a(lp4323
(lp4324
I5
aI888
aaaa(lp4325
I201
aI107
aI0
a(lp4326
(lp4327
I8
aI712
aaaa(lp4328
I202
aI108
aI0
a(lp4329
(lp4330
I6
aI607
aaaa(lp4331
I203
aI109
aI0
a(lp4332
(lp4333
I7
aI907
aaaa(lp4334
I204
aI110
aI0
a(lp4335
(lp4336
I8
aI725
aaaa(lp4337
I205
aI111
aI0
a(lp4338
(lp4339
I2
aI1360
aaaa(lp4340
I206
aI112
aI-1
a(lp4341
aa(lp4342
I207
aI113
aI0
a(lp4343
(lp4344
I11
aI544
aaaa(lp4345
I208
aI114
aI0
a(lp4346
(lp4347
I2
aI504
aaaa(lp4348
I209
aI115
aI0
a(lp4349
(lp4350
I8
aI582
aaaa(lp4351
I210
aI116
aI0
a(lp4352
(lp4353
I4
aI508
aaaa(lp4354
I211
aI117
aI0
a(lp4355
(lp4356
I3
aI528
aaaa(lp4357
I212
aI12
aI0
a(lp4358
(lp4359
I7
aI172
aaaa(lp4360
I213
aI13
aI0
a(lp4361
(lp4362
I11
aI227
aaaa(lp4363
I214
aI14
aI0
a(lp4364
(lp4365
I10
aI185
aaaa(lp4366
I215
aI15
aI0
a(lp4367
(lp4368
I3
aI1362
aaaa(lp4369
I216
aI16
aI0
a(lp4370
(lp4371
I6
aI124
aaaa(lp4372
I217
aI17
aI0
a(lp4373
(lp4374
I11
aI53
aaaa(lp4375
I218
aI18
aI0
a(lp4376
(lp4377
I4
aI235
aa(lp4378
I3
aI81
aaaa(lp4379
I219
aI19
aI0
a(lp4380
(lp4381
I11
aI72
aaaa(lp4382
I220
aI20
aI0
a(lp4383
(lp4384
I4
aI1273
aaaa(lp4385
I221
aI21
aI0
a(lp4386
(lp4387
I6
aI17
aaaa(lp4388
I222
aI22
aI0
a(lp4389
(lp4390
I3
aI1259
aaaa(lp4391
I223
aI23
aI0
a(lp4392
(lp4393
I2
aI1135
aaaa(lp4394
I224
aI24
aI1
a(lp4395
(lp4396
I10
aI1254
aaaa(lp4397
I225
aI25
aI0
a(lp4398
(lp4399
I11
aI1009
aaaa(lp4400
I226
aI26
aI0
a(lp4401
(lp4402
I9
aI786
aaaa(lp4403
I227
aI27
aI0
a(lp4404
(lp4405
I8
aI1022
aaaa(lp4406
I228
aI28
aI0
a(lp4407
(lp4408
I8
aI930
aaaa(lp4409
I229
aI29
aI0
a(lp4410
(lp4411
I5
aI709
aaaa(lp4412
I230
aI30
aI0
a(lp4413
(lp4414
I6
aI649
aa(lp4415
I2
aI227
aaaa(lp4416
I231
aI31
aI0
a(lp4417
(lp4418
I4
aI888
aaaa(lp4419
I232
aI32
aI0
a(lp4420
(lp4421
I11
aI737
aaaa(lp4422
I233
aI33
aI0
a(lp4423
(lp4424
I11
aI734
aaaa(lp4425
I234
aI34
aI1
a(lp4426
(lp4427
I5
aI699
aaaa(lp4428
I235
aI35
aI0
a(lp4429
(lp4430
I3
aI699
aaaa(lp4431
I236
aI36
aI0
a(lp4432
(lp4433
I2
aI525
aaaa(lp4434
I237
aI37
aI0
a(lp4435
(lp4436
I8
aI482
aaaa(lp4437
I238
aI38
aI0
a(lp4438
(lp4439
I3
aI509
aaaa(lp4440
I239
aI39
aI0
a(lp4441
(lp4442
I3
aI548
aaaa(lp4443
I240
aI40
aI0
a(lp4444
(lp4445
I8
aI463
aaaa(lp4446
I241
aI41
aI0
a(lp4447
(lp4448
I10
aI517
aaaa(lp4449
I242
aI42
aI0
a(lp4450
(lp4451
I5
aI399
aaaa(lp4452
I243
aI43
aI0
a(lp4453
(lp4454
I9
aI337
aaaa(lp4455
I244
aI44
aI0
a(lp4456
(lp4457
I11
aI61
aa(lp4458
I11
aI1182
aaaa(lp4459
I245
aI45
aI0
a(lp4460
(lp4461
I9
aI1406
aaaa(lp4462
I246
aI46
aI0
a(lp4463
(lp4464
I5
aI229
aaaa(lp4465
I247
aI47
aI0
a(lp4466
(lp4467
I7
aI15
aa(lp4468
I7
aI1413
aaaa(lp4469
I248
aI48
aI0
a(lp4470
(lp4471
I5
aI132
aaaa(lp4472
I249
aI49
aI0
a(lp4473
(lp4474
I10
aI1295
aaaa(lp4475
I250
aI50
aI0
a(lp4476
(lp4477
I8
aI93
aaaa(lp4478
I251
aI51
aI0
a(lp4479
(lp4480
I3
aI1199
aaaa(lp4481
I252
aI52
aI1
a(lp4482
(lp4483
I11
aI1229
aaaa(lp4484
I253
aI53
aI0
a(lp4485
(lp4486
I9
aI131
aaaa(lp4487
I254
aI54
aI0
a(lp4488
(lp4489
I5
aI190
aaaa(lp4490
I255
aI55
aI-1
a(lp4491
aa(lp4492
I256
aI56
aI0
a(lp4493
(lp4494
I6
aI263
aaaa(lp4495
I257
aI57
aI-1
a(lp4496
aa(lp4497
I258
aI58
aI0
a(lp4498
(lp4499
I2
aI1269
aaaa(lp4500
I259
aI59
aI0
a(lp4501
(lp4502
I2
aI1122
aaaa(lp4503
I260
aI60
aI0
a(lp4504
(lp4505
I2
aI946
aaaa(lp4506
I261
aI61
aI0
a(lp4507
(lp4508
I6
aI846
aaaa(lp4509
I262
aI62
aI0
a(lp4510
(lp4511
I6
aI814
aaaa(lp4512
I263
aI63
aI0
a(lp4513
(lp4514
I5
aI706
aaaa(lp4515
I264
aI64
aI0
a(lp4516
(lp4517
I6
aI919
aaaa(lp4518
I265
aI65
aI0
a(lp4519
(lp4520
I6
aI581
aaaa(lp4521
I266
aI66
aI1
a(lp4522
(lp4523
I1
aI753
aaaa(lp4524
I267
aI67
aI0
a(lp4525
(lp4526
I3
aI552
aaaa(lp4527
I268
aI68
aI0
a(lp4528
(lp4529
I3
aI486
aaaa(lp4530
I269
aI69
aI0
a(lp4531
(lp4532
I11
aI602
aaaa(lp4533
I270
aI70
aI0
a(lp4534
(lp4535
I9
aI520
aaaa(lp4536
I271
aI71
aI0
a(lp4537
(lp4538
I7
aI351
aaaa(lp4539
I272
aI72
aI0
a(lp4540
(lp4541
I9
aI436
aaaa(lp4542
I273
aI73
aI1
a(lp4543
(lp4544
I8
aI324
aaaa(lp4545
I274
aI74
aI0
a(lp4546
(lp4547
I2
aI358
aaaa(lp4548
I275
aI75
aI0
a(lp4549
(lp4550
I4
aI289
aaaa(lp4551
I276
aI76
aI0
a(lp4552
(lp4553
I7
aI153
aaaa(lp4554
I277
aI77
aI0
a(lp4555
(lp4556
I10
aI1249
aaaa(lp4557
I278
aI78
aI0
a(lp4558
(lp4559
I4
aI172
aaaa(lp4560
I279
aI79
aI0
a(lp4561
(lp4562
I10
aI87
aaaa(lp4563
I280
aI80
aI0
a(lp4564
(lp4565
I10
aI1271
aaaa(lp4566
I281
aI81
aI0
a(lp4567
(lp4568
I5
aI606
aa(lp4569
I11
aI649
aaaa(lp4570
I282
aI82
aI0
a(lp4571
(lp4572
I7
aI1184
aaaa(lp4573
I283
aI83
aI0
a(lp4574
(lp4575
I4
aI1138
aaaa(lp4576
I284
aI84
aI1
a(lp4577
(lp4578
I4
aI1090
aaaa(lp4579
I285
aI85
aI0
a(lp4580
(lp4581
I10
aI1117
aaaa(lp4582
I286
aI86
aI0
a(lp4583
(lp4584
I6
aI935
aaaa(lp4585
I287
aI87
aI0
a(lp4586
(lp4587
I3
aI993
aaaa(lp4588
I288
aI88
aI0
a(lp4589
(lp4590
I9
aI952
aaaa(lp4591
I289
aI89
aI0
a(lp4592
(lp4593
I3
aI672
aaaa(lp4594
I290
aI90
aI0
a(lp4595
(lp4596
I10
aI763
aaaa(lp4597
I291
aI91
aI0
a(lp4598
(lp4599
I6
aI762
aaaa(lp4600
I292
aI92
aI0
a(lp4601
(lp4602
I5
aI656
aaaa(lp4603
I293
aI93
aI0
a(lp4604
(lp4605
I4
aI718
aaaa(lp4606
I294
aI94
aI0
a(lp4607
(lp4608
I3
aI685
aaaa(lp4609
I295
aI95
aI0
a(lp4610
(lp4611
I4
aI724
aaaa(lp4612
I296
aI96
aI0
a(lp4613
(lp4614
I3
aI340
aa(lp4615
I1
aI386
aaaa(lp4616
I297
aI97
aI0
a(lp4617
(lp4618
I7
aI635
aaaa(lp4619
I298
aI98
aI0
a(lp4620
(lp4621
I4
aI569
aaaa(lp4622
I299
aI99
aI0
a(lp4623
(lp4624
I9
aI500
aaaa(lp4625
I300
aI100
aI0
a(lp4626
(lp4627
I9
aI309
aaaa(lp4628
I301
aI101
aI0
a(lp4629
(lp4630
I9
aI473
aaaa(lp4631
I302
aI102
aI0
a(lp4632
(lp4633
I4
aI243
aaaa(lp4634
I303
aI103
aI1
a(lp4635
(lp4636
I5
aI328
aaaa(lp4637
I304
aI104
aI0
a(lp4638
(lp4639
I8
aI432
aaaa(lp4640
I305
aI105
aI0
a(lp4641
(lp4642
I7
aI452
aaaa(lp4643
I306
aI106
aI0
a(lp4644
(lp4645
I5
aI173
aaaa(lp4646
I307
aI107
aI0
a(lp4647
(lp4648
I8
aI117
aaaa(lp4649
I308
aI108
aI0
a(lp4650
(lp4651
I6
aI1222
aaaa(lp4652
I309
aI109
aI0
a(lp4653
(lp4654
I7
aI230
aaaa(lp4655
I310
aI110
aI0
a(lp4656
(lp4657
I8
aI62
aaaa(lp4658
I311
aI111
aI0
a(lp4659
(lp4660
I2
aI1083
aaaa(lp4661
I312
aI112
aI0
a(lp4662
(lp4663
I2
aI1140
aaaa(lp4664
I313
aI113
aI1
a(lp4665
(lp4666
I11
aI1179
aaaa(lp4667
I314
aI114
aI0
a(lp4668
(lp4669
I2
aI1274
aaaa(lp4670
I315
aI115
aI0
a(lp4671
(lp4672
I8
aI1257
aaaa(lp4673
I316
aI116
aI0
a(lp4674
(lp4675
I4
aI1130
aaaa(lp4676
I317
aI117
aI0
a(lp4677
(lp4678
I3
aI1229
aaaa(lp4679
I318
aI12
aI0
a(lp4680
(lp4681
I7
aI99
aa(lp4682
I7
aI616
aaaa(lp4683
I319
aI13
aI0
a(lp4684
(lp4685
I11
aI812
aaaa(lp4686
I320
aI14
aI0
a(lp4687
(lp4688
I10
aI703
aaaa(lp4689
I321
aI15
aI0
a(lp4690
(lp4691
I3
aI669
aaaa(lp4692
I322
aI16
aI0
a(lp4693
(lp4694
I6
aI177
aa(lp4695
I1
aI663
aaaa(lp4696
I323
aI17
aI0
a(lp4697
(lp4698
I11
aI624
aaaa(lp4699
I324
aI18
aI0
a(lp4700
(lp4701
I4
aI204
aa(lp4702
I2
aI731
aaaa(lp4703
I325
aI19
aI0
a(lp4704
(lp4705
I11
aI679
aaaa(lp4706
I326
aI20
aI0
a(lp4707
(lp4708
I4
aI427
aaaa(lp4709
I327
aI21
aI0
a(lp4710
(lp4711
I9
aI611
aa(lp4712
I7
aI158
aaaa(lp4713
I328
aI22
aI0
a(lp4714
(lp4715
I3
aI540
aaaa(lp4716
I329
aI23
aI0
a(lp4717
(lp4718
I2
aI452
aaaa(lp4719
I330
aI24
aI1
a(lp4720
(lp4721
I1
aI653
aaaa(lp4722
I331
aI25
aI0
a(lp4723
(lp4724
I11
aI442
aaaa(lp4725
I332
aI26
aI0
a(lp4726
(lp4727
I9
aI251
aaaa(lp4728
I333
aI27
aI0
a(lp4729
(lp4730
I8
aI334
aaaa(lp4731
I334
aI28
aI0
a(lp4732
(lp4733
I8
aI257
aaaa(lp4734
I335
aI29
aI0
a(lp4735
(lp4736
I5
aI31
aaaa(lp4737
I336
aI30
aI0
a(lp4738
(lp4739
I6
aI251
aaaa(lp4740
I337
aI31
aI0
a(lp4741
(lp4742
I4
aI52
aaaa(lp4743
I338
aI32
aI0
a(lp4744
(lp4745
I11
aI181
aaaa(lp4746
I339
aI33
aI0
a(lp4747
(lp4748
I11
aI44
aaaa(lp4749
I340
aI34
aI0
a(lp4750
(lp4751
I5
aI1251
aaaa(lp4752
I341
aI35
aI0
a(lp4753
(lp4754
I7
aI1285
aaaa(lp4755
I342
aI36
aI0
a(lp4756
(lp4757
I2
aI983
aaaa(lp4758
I343
aI37
aI0
a(lp4759
(lp4760
I8
aI1014
aaaa(lp4761
I344
aI38
aI1
a(lp4762
(lp4763
I3
aI1142
aaaa(lp4764
I345
aI39
aI0
a(lp4765
(lp4766
I6
aI1072
aaaa(lp4767
I346
aI40
aI0
a(lp4768
(lp4769
I8
aI1201
aaaa(lp4770
I347
aI41
aI0
a(lp4771
(lp4772
I10
aI1199
aaaa(lp4773
I348
aI42
aI0
a(lp4774
(lp4775
I5
aI942
aaaa(lp4776
I349
aI43
aI0
a(lp4777
(lp4778
I9
aI928
aaaa(lp4779
I350
aI44
aI0
a(lp4780
(lp4781
I11
aI127
aa(lp4782
I11
aI568
aaaa(lp4783
I351
aI45
aI0
a(lp4784
(lp4785
I9
aI815
aaaa(lp4786
I352
aI46
aI0
a(lp4787
(lp4788
I5
aI848
aaaa(lp4789
I353
aI47
aI0
a(lp4790
(lp4791
I7
aI744
aaaa(lp4792
I354
aI48
aI1
a(lp4793
(lp4794
I5
aI821
aaaa(lp4795
I355
aI49
aI1
a(lp4796
(lp4797
I10
aI427
aaaa(lp4798
I356
aI50
aI1
a(lp4799
(lp4800
I8
aI709
aaaa(lp4801
I357
aI51
aI0
a(lp4802
(lp4803
I3
aI483
aaaa(lp4804
I358
aI52
aI0
a(lp4805
(lp4806
I11
aI423
aaaa(lp4807
I359
aI53
aI0
a(lp4808
(lp4809
I10
aI1085
aaaa(lp4810
I360
aI54
aI0
a(lp4811
(lp4812
I5
aI1077
aaaa(lp4813
I361
aI55
aI1
a(lp4814
(lp4815
I4
aI114
aa(lp4816
I4
aI798
aaaa(lp4817
I362
aI56
aI0
a(lp4818
(lp4819
I6
aI1181
aaaa(lp4820
I363
aI57
aI0
a(lp4821
(lp4822
I8
aI830
aaaa(lp4823
I364
aI58
aI0
a(lp4824
(lp4825
I2
aI649
aaaa(lp4826
I365
aI59
aI0
a(lp4827
(lp4828
I2
aI355
aaaa(lp4829
I366
aI60
aI0
a(lp4830
(lp4831
I2
aI151
aaaa(lp4832
I367
aI61
aI0
a(lp4833
(lp4834
I6
aI87
aaaa(lp4835
I368
aI62
aI0
a(lp4836
(lp4837
I6
aI1326
aaaa(lp4838
I369
aI63
aI0
a(lp4839
(lp4840
I5
aI1277
aaaa(lp4841
I370
aI64
aI0
a(lp4842
(lp4843
I6
aI245
aaaa(lp4844
I371
aI65
aI0
a(lp4845
(lp4846
I6
aI32
aa(lp4847
I8
aI1275
aaaa(lp4848
I372
aI66
aI0
a(lp4849
(lp4850
I7
aI33
aaaa(lp4851
I373
aI67
aI0
a(lp4852
(lp4853
I3
aI1157
aaaa(lp4854
I374
aI68
aI1
a(lp4855
(lp4856
I5
aI1280
aaaa(lp4857
I375
aI69
aI0
a(lp4858
(lp4859
I3
aI319
aa(lp4860
I11
aI860
aaaa(lp4861
I376
aI70
aI0
a(lp4862
(lp4863
I9
aI1119
aaaa(lp4864
I377
aI71
aI0
a(lp4865
(lp4866
I2
aI48
aa(lp4867
I7
aI986
aaaa(lp4868
I378
aI72
aI0
a(lp4869
(lp4870
I9
aI1031
aaaa(lp4871
I379
aI73
aI0
a(lp4872
(lp4873
I10
aI964
aaaa(lp4874
I380
aI74
aI0
a(lp4875
(lp4876
I11
aI798
aaaa(lp4877
I381
aI75
aI0
a(lp4878
(lp4879
I9
aI972
aaaa(lp4880
I382
aI76
aI0
a(lp4881
(lp4882
I7
aI793
aaaa(lp4883
I383
aI77
aI0
a(lp4884
(lp4885
I10
aI464
aaaa(lp4886
I384
aI78
aI0
a(lp4887
(lp4888
I7
aI828
aaaa(lp4889
I385
aI79
aI0
a(lp4890
(lp4891
I10
aI296
aa(lp4892
I4
aI471
aaaa(lp4893
I386
aI80
aI0
a(lp4894
(lp4895
I10
aI418
aaaa(lp4896
I387
aI81
aI0
a(lp4897
(lp4898
I5
aI430
aaaa(lp4899
I388
aI82
aI0
a(lp4900
(lp4901
I7
aI407
aaaa(lp4902
I389
aI83
aI0
a(lp4903
(lp4904
I4
aI475
aaaa(lp4905
I390
aI84
aI0
a(lp4906
(lp4907
I4
aI411
aaaa(lp4908
I391
aI85
aI0
a(lp4909
(lp4910
I10
aI374
aaaa(lp4911
I392
aI86
aI0
a(lp4912
(lp4913
I6
aI139
aaaa(lp4914
I393
aI87
aI0
a(lp4915
(lp4916
I3
aI266
aaaa(lp4917
I394
aI88
aI0
a(lp4918
(lp4919
I9
aI197
aaaa(lp4920
I395
aI89
aI0
a(lp4921
(lp4922
I3
aI1262
aaaa(lp4923
I396
aI90
aI0
a(lp4924
(lp4925
I10
aI6
aa(lp4926
I10
aI1343
aaaa(lp4927
I397
aI91
aI0
a(lp4928
(lp4929
I6
aI40
aaaa(lp4930
I398
aI92
aI0
a(lp4931
(lp4932
I5
aI1187
aaaa(lp4933
I399
aI93
aI0
a(lp4934
(lp4935
I2
aI1324
aaaasg1227
(lp4936
(lp4937
I184191
aI97815
aa(lp4938
I183965
aI130136
aa(lp4939
I180421
aI77226
aa(lp4940
I184548
aI142141
aa(lp4941
I183923
aI132518
aa(lp4942
I161569
aI64568
aa(lp4943
I178526
aI79345
aa(lp4944
I165802
aI102622
aa(lp4945
I181054
aI92896
aa(lp4946
I177999
aI69932
aasg1239
(lp4947
I1619054
aI215607
asg1241
(lp4948
F0.0
aF0.0
aF0.0
aF0.0
aF0.0
aF0.0
aF0.0
aF0.0
aF0.0
aF0.0
aF0.0
aF0.0
aF0.0
aF0.0
aF0.0
aF0.0
aF0.0
aF0.0
aF0.0
aF0.0
aF0.0
aF0.0
aF0.0
aF0.0
aF0.0
aF0.0
aF0.0
aF0.0
aF0.0
aF0.0
aF0.0
aF0.0
aF0.0
aF0.0
aF0.0
aF0.0
aF0.0
aF0.0
aF0.0
aF0.0
aF0.0
aF0.0
aF0.0
aF0.0
aF0.0
aF0.0
aF0.0
aF0.0
aF0.0
aF0.0
aF0.0
aF0.0
aF0.0
aF0.0
aF0.0
aF0.0
aF0.0
aF0.0
aF0.0
aF0.0
aF0.0
aF0.0
aF0.0
aF0.0
aF0.0
aF0.0
aF0.0
aF0.0
aF0.0
aF0.0
aF0.0
aF0.0
aF0.0
aF0.0
aF0.0
aF0.0
aF0.0
aF0.0
aF0.0
aF0.0
aF0.0
aF0.0
aF0.0
aF0.0
aF0.0
aF0.0
aF0.0
aF0.0
aF0.0
aF0.0
aF0.0
aF0.0
aF0.0
aF0.0
aF0.0
aF0.0
aF0.0
aF0.0
aF0.0
aF0.0
aF0.0
aF0.0
aF0.0
aF0.0
aF0.0
aF0.0
assI4
(dp4949
g2
(lp4950
(lp4951
I14892
aI0
aa(lp4952
I14833
aI0
aa(lp4953
I14797
aI0
aa(lp4954
I17807
aI0
aa(lp4955
I17364
aI0
aa(lp4956
I17586
aI0
aa(lp4957
I17733
aI0
aa(lp4958
I17760
aI0
aa(lp4959
I17601
aI0
aa(lp4960
I17783
aI0
aa(lp4961
I17685
aI0
aa(lp4962
I17631
aI0
aa(lp4963
I17584
aI0
aa(lp4964
I14759
aI0
aa(lp4965
I14862
aI2
aa(lp4966
I14987
aI0
aa(lp4967
I16807
aI0
aa(lp4968
I16853
aI0
aa(lp4969
I16824
aI0
aa(lp4970
I16677
aI0
aa(lp4971
I17004
aI0
aa(lp4972
I17169
aI0
aa(lp4973
I16627
aI0
aa(lp4974
I16964
aI0
aa(lp4975
I16870
aI0
aa(lp4976
I17016
aI0
aa(lp4977
I16807
aI0
aa(lp4978
I16568
aI0
aa(lp4979
I16870
aI0
aa(lp4980
I16660
aI0
aa(lp4981
I16716
aI0
aa(lp4982
I15522
aI0
aa(lp4983
I15390
aI0
aa(lp4984
I18409
aI0
aa(lp4985
I18347
aI0
aa(lp4986
I18201
aI0
aa(lp4987
I18607
aI0
aa(lp4988
I18427
aI0
aa(lp4989
I18398
aI0
aa(lp4990
I18384
aI0
aa(lp4991
I18214
aI0
aa(lp4992
I17692
aI778
aa(lp4993
I17716
aI802
aa(lp4994
I17884
aI675
aa(lp4995
I17653
aI810
aa(lp4996
I17932
aI857
aa(lp4997
I17559
aI798
aa(lp4998
I18042
aI0
aa(lp4999
I17882
aI0
aa(lp5000
I18114
aI0
aa(lp5001
I17877
aI0
aa(lp5002
I17394
aI0
aa(lp5003
I17406
aI0
aa(lp5004
I17641
aI0
aa(lp5005
I17492
aI0
aa(lp5006
I17420
aI0
aa(lp5007
I17447
aI0
aa(lp5008
I17393
aI0
aa(lp5009
I17625
aI0
aa(lp5010
I17269
aI0
aa(lp5011
I17373
aI0
aa(lp5012
I17620
aI0
aa(lp5013
I17539
aI0
aa(lp5014
I17486
aI0
aa(lp5015
I17544
aI0
aa(lp5016
I17441
aI0
aa(lp5017
I17371
aI0
aa(lp5018
I17638
aI0
aa(lp5019
I17395
aI0
aa(lp5020
I17405
aI0
aa(lp5021
I17289
aI0
aa(lp5022
I17536
aI0
aa(lp5023
I17335
aI0
aa(lp5024
I17555
aI0
aa(lp5025
I17398
aI0
aa(lp5026
I17499
aI0
aa(lp5027
I17584
aI0
aa(lp5028
I17418
aI0
aa(lp5029
I17332
aI0
aa(lp5030
I17388
aI0
aa(lp5031
I17651
aI0
aa(lp5032
I17416
aI0
aa(lp5033
I17322
aI0
aa(lp5034
I17255
aI0
aa(lp5035
I17577
aI0
aa(lp5036
I17632
aI0
aa(lp5037
I17357
aI0
aa(lp5038
I17353
aI0
aa(lp5039
I17568
aI0
aa(lp5040
I17553
aI0
aa(lp5041
I17532
aI0
aa(lp5042
I17596
aI14
aa(lp5043
I17549
aI15
aa(lp5044
I17489
aI0
aa(lp5045
I17567
aI0
aa(lp5046
I17522
aI0
aa(lp5047
I17463
aI0
aa(lp5048
I17558
aI0
aa(lp5049
I17312
aI0
aa(lp5050
I17272
aI1403
aa(lp5051
I17407
aI1545
aa(lp5052
I17951
aI0
aa(lp5053
I17532
aI0
aa(lp5054
I18034
aI0
aa(lp5055
I17998
aI0
aa(lp5056
I18110
aI0
aasg110
(lp5057
F0.0
aF0.0
aF0.0
aF0.0
aF0.0
aF0.0
aF0.2857142857142857
aF0.0
aF0.0
aF0.0
asg112
(lp5058
(lp5059
I36
aI48
aI1
a(lp5060
(lp5061
I1
aI146
aaaa(lp5062
I37
aI49
aI1
a(lp5063
(lp5064
I1
aI75
aaaa(lp5065
I38
aI50
aI1
a(lp5066
(lp5067
I1
aI40
aaaa(lp5068
I39
aI51
aI1
a(lp5069
(lp5070
I1
aI48
aaaa(lp5071
I40
aI52
aI0
a(lp5072
(lp5073
I11
aI1344
aaaa(lp5074
I41
aI53
aI0
a(lp5075
(lp5076
I10
aI1384
aaaa(lp5077
I42
aI54
aI0
a(lp5078
(lp5079
I5
aI861
aa(lp5080
I7
aI460
aaaa(lp5081
I43
aI55
aI0
a(lp5082
(lp5083
I4
aI1272
aaaa(lp5084
I44
aI56
aI0
a(lp5085
(lp5086
I6
aI1279
aaaa(lp5087
I45
aI57
aI0
a(lp5088
(lp5089
I8
aI1275
aaaa(lp5090
I46
aI58
aI0
a(lp5091
(lp5092
I2
aI1135
aaaa(lp5093
I47
aI59
aI0
a(lp5094
(lp5095
I2
aI1035
aaaa(lp5096
I48
aI60
aI0
a(lp5097
(lp5098
I2
aI1027
aaaa(lp5099
I49
aI61
aI0
a(lp5100
(lp5101
I6
aI875
aaaa(lp5102
I50
aI62
aI0
a(lp5103
(lp5104
I6
aI843
aaaa(lp5105
I51
aI63
aI0
a(lp5106
(lp5107
I8
aI835
aaaa(lp5108
I52
aI64
aI0
a(lp5109
(lp5110
I6
aI692
aaaa(lp5111
I53
aI65
aI0
a(lp5112
(lp5113
I6
aI663
aaaa(lp5114
I54
aI66
aI0
a(lp5115
(lp5116
I7
aI626
aaaa(lp5117
I55
aI67
aI1
a(lp5118
(lp5119
I3
aI574
aaaa(lp5120
I56
aI68
aI0
a(lp5121
(lp5122
I3
aI580
aaaa(lp5123
I57
aI69
aI0
a(lp5124
(lp5125
I3
aI547
aaaa(lp5126
I58
aI70
aI0
a(lp5127
(lp5128
I9
aI466
aaaa(lp5129
I59
aI71
aI0
a(lp5130
(lp5131
I2
aI524
aaaa(lp5132
I60
aI72
aI0
a(lp5133
(lp5134
I9
aI442
aaaa(lp5135
I61
aI73
aI0
a(lp5136
(lp5137
I10
aI340
aaaa(lp5138
I62
aI74
aI0
a(lp5139
(lp5140
I11
aI299
aaaa(lp5141
I63
aI75
aI0
a(lp5142
(lp5143
I9
aI175
aaaa(lp5144
I64
aI76
aI0
a(lp5145
(lp5146
I7
aI260
aaaa(lp5147
I65
aI77
aI0
a(lp5148
(lp5149
I10
aI249
aaaa(lp5150
I66
aI78
aI0
a(lp5151
(lp5152
I7
aI198
aaaa(lp5153
I67
aI79
aI0
a(lp5154
(lp5155
I2
aI67
aaaa(lp5156
I68
aI80
aI0
a(lp5157
(lp5158
I10
aI81
aaaa(lp5159
I69
aI81
aI0
a(lp5160
(lp5161
I11
aI2
aa(lp5162
I2
aI39
aaaa(lp5163
I70
aI82
aI0
a(lp5164
(lp5165
I7
aI1320
aaaa(lp5166
I71
aI83
aI0
a(lp5167
(lp5168
I4
aI1251
aaaa(lp5169
I72
aI84
aI0
a(lp5170
(lp5171
I4
aI1175
aaaa(lp5172
I73
aI85
aI0
a(lp5173
(lp5174
I10
aI1132
aaaa(lp5175
I74
aI86
aI0
a(lp5176
(lp5177
I7
aI49
aa(lp5178
I9
aI1167
aaaa(lp5179
I75
aI87
aI0
a(lp5180
(lp5181
I3
aI1058
aaaa(lp5182
I76
aI88
aI0
a(lp5183
(lp5184
I9
aI1003
aaaa(lp5185
I77
aI89
aI0
a(lp5186
(lp5187
I3
aI281
aa(lp5188
I10
aI709
aaaa(lp5189
I78
aI90
aI0
a(lp5190
(lp5191
I10
aI956
aaaa(lp5192
I79
aI91
aI0
a(lp5193
(lp5194
I2
aI943
aaaa(lp5195
I80
aI92
aI0
a(lp5196
(lp5197
I11
aI796
aa(lp5198
I8
aI39
aaaa(lp5199
I81
aI93
aI0
a(lp5200
(lp5201
I2
aI866
aaaa(lp5202
I82
aI94
aI0
a(lp5203
(lp5204
I10
aI783
aaaa(lp5205
I83
aI95
aI0
a(lp5206
(lp5207
I4
aI777
aaaa(lp5208
I84
aI96
aI0
a(lp5209
(lp5210
I6
aI606
aaaa(lp5211
I85
aI97
aI0
a(lp5212
(lp5213
I7
aI510
aaaa(lp5214
I86
aI98
aI0
a(lp5215
(lp5216
I4
aI556
aaaa(lp5217
I87
aI99
aI0
a(lp5218
(lp5219
I9
aI625
aaaa(lp5220
I88
aI100
aI0
a(lp5221
(lp5222
I9
aI489
aaaa(lp5223
I89
aI101
aI0
a(lp5224
(lp5225
I9
aI437
aaaa(lp5226
I90
aI102
aI0
a(lp5227
(lp5228
I4
aI411
aaaa(lp5229
I91
aI103
aI0
a(lp5230
(lp5231
I5
aI188
aaaa(lp5232
I92
aI104
aI1
a(lp5233
(lp5234
I8
aI223
aaaa(lp5235
I93
aI105
aI0
a(lp5236
(lp5237
I7
aI198
aaaa(lp5238
I94
aI106
aI0
a(lp5239
(lp5240
I5
aI243
aaaa(lp5241
I95
aI107
aI1
a(lp5242
(lp5243
I8
aI91
aaaa(lp5244
I96
aI108
aI0
a(lp5245
(lp5246
I6
aI222
aaaa(lp5247
I97
aI109
aI0
a(lp5248
(lp5249
I7
aI157
aaaa(lp5250
I98
aI110
aI1
a(lp5251
(lp5252
I8
aI89
aaaa(lp5253
I99
aI111
aI1
a(lp5254
(lp5255
I1
aI247
aaaa(lp5256
I100
aI112
aI0
a(lp5257
(lp5258
I4
aI42
aa(lp5259
I1
aI81
aaaa(lp5260
I101
aI113
aI0
a(lp5261
(lp5262
I11
aI1177
aaaa(lp5263
I102
aI114
aI0
a(lp5264
(lp5265
I2
aI1257
aaaa(lp5266
I103
aI115
aI1
a(lp5267
(lp5268
I8
aI556
aa(lp5269
I8
aI703
aaaa(lp5270
I104
aI116
aI0
a(lp5271
(lp5272
I4
aI1242
aaaa(lp5273
I105
aI117
aI0
a(lp5274
(lp5275
I3
aI1097
aaaa(lp5276
I106
aI12
aI0
a(lp5277
(lp5278
I7
aI884
aaaa(lp5279
I107
aI13
aI0
a(lp5280
(lp5281
I11
aI854
aaaa(lp5282
I108
aI14
aI0
a(lp5283
(lp5284
I10
aI811
aaaa(lp5285
I109
aI15
aI0
a(lp5286
(lp5287
I3
aI905
aaaa(lp5288
I110
aI16
aI1
a(lp5289
(lp5290
I6
aI991
aaaa(lp5291
I111
aI17
aI0
a(lp5292
(lp5293
I11
aI761
aaaa(lp5294
I112
aI18
aI1
a(lp5295
(lp5296
I4
aI830
aaaa(lp5297
I113
aI19
aI0
a(lp5298
(lp5299
I11
aI651
aaaa(lp5300
I114
aI20
aI0
a(lp5301
(lp5302
I4
aI741
aaaa(lp5303
I115
aI21
aI0
a(lp5304
(lp5305
I5
aI588
aaaa(lp5306
I116
aI22
aI0
a(lp5307
(lp5308
I3
aI602
aaaa(lp5309
I117
aI23
aI1
a(lp5310
(lp5311
I2
aI501
aaaa(lp5312
I118
aI24
aI0
a(lp5313
(lp5314
I3
aI491
aaaa(lp5315
I119
aI25
aI0
a(lp5316
(lp5317
I11
aI386
aaaa(lp5318
I120
aI26
aI0
a(lp5319
(lp5320
I9
aI339
aaaa(lp5321
I121
aI27
aI0
a(lp5322
(lp5323
I5
aI275
aaaa(lp5324
I122
aI28
aI0
a(lp5325
(lp5326
I8
aI298
aaaa(lp5327
I123
aI29
aI0
a(lp5328
(lp5329
I3
aI316
aaaa(lp5330
I124
aI30
aI0
a(lp5331
(lp5332
I6
aI162
aaaa(lp5333
I125
aI31
aI0
a(lp5334
(lp5335
I4
aI216
aaaa(lp5336
I126
aI32
aI0
a(lp5337
(lp5338
I11
aI142
aaaa(lp5339
I127
aI33
aI0
a(lp5340
(lp5341
I11
aI1
aa(lp5342
I11
aI1293
aaaa(lp5343
I128
aI34
aI0
a(lp5344
(lp5345
I5
aI17
aaaa(lp5346
I129
aI35
aI0
a(lp5347
(lp5348
I7
aI1207
aaaa(lp5349
I130
aI36
aI0
a(lp5350
(lp5351
I2
aI1221
aaaa(lp5352
I131
aI37
aI0
a(lp5353
(lp5354
I2
aI1085
aaaa(lp5355
I132
aI38
aI1
a(lp5356
(lp5357
I9
aI1178
aaaa(lp5358
I133
aI39
aI1
a(lp5359
(lp5360
I6
aI1117
aaaa(lp5361
I134
aI40
aI0
a(lp5362
(lp5363
I8
aI1038
aaaa(lp5364
I135
aI41
aI0
a(lp5365
(lp5366
I10
aI958
aa(lp5367
I10
aI35
aaaa(lp5368
I136
aI42
aI0
a(lp5369
(lp5370
I5
aI914
aaaa(lp5371
I137
aI43
aI0
a(lp5372
(lp5373
I9
aI798
aaaa(lp5374
I138
aI44
aI0
a(lp5375
(lp5376
I11
aI682
aaaa(lp5377
I139
aI45
aI0
a(lp5378
(lp5379
I9
aI981
aaaa(lp5380
I140
aI46
aI0
a(lp5381
(lp5382
I5
aI905
aaaa(lp5383
I141
aI47
aI0
a(lp5384
(lp5385
I7
aI985
aaaa(lp5386
I142
aI48
aI1
a(lp5387
(lp5388
I5
aI749
aaaa(lp5389
I143
aI49
aI0
a(lp5390
(lp5391
I10
aI668
aaaa(lp5392
I144
aI50
aI0
a(lp5393
(lp5394
I7
aI631
aaaa(lp5395
I145
aI51
aI1
a(lp5396
(lp5397
I3
aI711
aaaa(lp5398
I146
aI52
aI0
a(lp5399
(lp5400
I11
aI636
aaaa(lp5401
I147
aI53
aI0
a(lp5402
(lp5403
I8
aI832
aaaa(lp5404
I148
aI54
aI0
a(lp5405
(lp5406
I5
aI796
aaaa(lp5407
I149
aI55
aI1
a(lp5408
(lp5409
I4
aI829
aaaa(lp5410
I150
aI56
aI0
a(lp5411
(lp5412
I10
aI657
aaaa(lp5413
I151
aI57
aI0
a(lp5414
(lp5415
I8
aI696
aaaa(lp5416
I152
aI58
aI0
a(lp5417
(lp5418
I11
aI623
aaaa(lp5419
I153
aI59
aI0
a(lp5420
(lp5421
I2
aI242
aaaa(lp5422
I154
aI60
aI0
a(lp5423
(lp5424
I2
aI221
aaaa(lp5425
I155
aI61
aI0
a(lp5426
(lp5427
I6
aI171
aaaa(lp5428
I156
aI62
aI0
a(lp5429
(lp5430
I6
aI224
aaaa(lp5431
I157
aI63
aI0
a(lp5432
(lp5433
I8
aI74
aaaa(lp5434
I158
aI64
aI0
a(lp5435
(lp5436
I6
aI97
aaaa(lp5437
I159
aI65
aI0
a(lp5438
(lp5439
I6
aI1290
aaaa(lp5440
I160
aI66
aI0
a(lp5441
(lp5442
I7
aI1236
aaaa(lp5443
I161
aI67
aI1
a(lp5444
(lp5445
I3
aI1214
aaaa(lp5446
I162
aI68
aI0
a(lp5447
(lp5448
I3
aI1126
aaaa(lp5449
I163
aI69
aI0
a(lp5450
(lp5451
I3
aI1144
aaaa(lp5452
I164
aI70
aI0
a(lp5453
(lp5454
I9
aI1005
aaaa(lp5455
I165
aI71
aI0
a(lp5456
(lp5457
I9
aI136
aa(lp5458
I8
aI1132
aaaa(lp5459
I166
aI72
aI0
a(lp5460
(lp5461
I9
aI1086
aaaa(lp5462
I167
aI73
aI0
a(lp5463
(lp5464
I5
aI807
aaaa(lp5465
I168
aI74
aI0
a(lp5466
(lp5467
I11
aI87
aa(lp5468
I9
aI839
aaaa(lp5469
I169
aI75
aI0
a(lp5470
(lp5471
I9
aI811
aaaa(lp5472
I170
aI76
aI0
a(lp5473
(lp5474
I7
aI919
aaaa(lp5475
I171
aI77
aI0
a(lp5476
(lp5477
I10
aI915
aaaa(lp5478
I172
aI78
aI1
a(lp5479
(lp5480
I6
aI858
aaaa(lp5481
I173
aI79
aI0
a(lp5482
(lp5483
I2
aI717
aaaa(lp5484
I174
aI80
aI0
a(lp5485
(lp5486
I10
aI782
aaaa(lp5487
I175
aI81
aI0
a(lp5488
(lp5489
I2
aI625
aaaa(lp5490
I176
aI82
aI0
a(lp5491
(lp5492
I7
aI610
aaaa(lp5493
I177
aI83
aI0
a(lp5494
(lp5495
I4
aI420
aaaa(lp5496
I178
aI84
aI0
a(lp5497
(lp5498
I4
aI556
aaaa(lp5499
I179
aI85
aI0
a(lp5500
(lp5501
I10
aI378
aaaa(lp5502
I180
aI86
aI0
a(lp5503
(lp5504
I7
aI462
aaaa(lp5505
I181
aI87
aI0
a(lp5506
(lp5507
I2
aI382
aaaa(lp5508
I182
aI88
aI0
a(lp5509
(lp5510
I9
aI194
aaaa(lp5511
I183
aI89
aI0
a(lp5512
(lp5513
I10
aI299
aaaa(lp5514
I184
aI90
aI0
a(lp5515
(lp5516
I10
aI345
aaaa(lp5517
I185
aI91
aI0
a(lp5518
(lp5519
I2
aI259
aaaa(lp5520
I186
aI92
aI0
a(lp5521
(lp5522
I5
aI58
aaaa(lp5523
I187
aI93
aI0
a(lp5524
(lp5525
I4
aI147
aaaa(lp5526
I188
aI94
aI0
a(lp5527
(lp5528
I3
aI2
aa(lp5529
I3
aI1343
aaaa(lp5530
I189
aI95
aI0
a(lp5531
(lp5532
I4
aI220
aaaa(lp5533
I190
aI96
aI0
a(lp5534
(lp5535
I6
aI1121
aaaa(lp5536
I191
aI97
aI0
a(lp5537
(lp5538
I7
aI1161
aaaa(lp5539
I192
aI98
aI1
a(lp5540
(lp5541
I4
aI1219
aaaa(lp5542
I193
aI99
aI0
a(lp5543
(lp5544
I9
aI1281
aaaa(lp5545
I194
aI100
aI0
a(lp5546
(lp5547
I9
aI1035
aaaa(lp5548
I195
aI101
aI0
a(lp5549
(lp5550
I9
aI1053
aaaa(lp5551
I196
aI102
aI0
a(lp5552
(lp5553
I4
aI998
aaaa(lp5554
I197
aI103
aI0
a(lp5555
(lp5556
I5
aI878
aaaa(lp5557
I198
aI104
aI1
a(lp5558
(lp5559
I8
aI899
aaaa(lp5560
I199
aI105
aI0
a(lp5561
(lp5562
I7
aI878
aaaa(lp5563
I200
aI106
aI0
a(lp5564
(lp5565
I2
aI924
aaaa(lp5566
I201
aI107
aI1
a(lp5567
(lp5568
I8
aI750
aaaa(lp5569
I202
aI108
aI0
a(lp5570
(lp5571
I6
aI786
aaaa(lp5572
I203
aI109
aI0
a(lp5573
(lp5574
I7
aI748
aaaa(lp5575
I204
aI110
aI1
a(lp5576
(lp5577
I8
aI727
aaaa(lp5578
I205
aI111
aI-1
a(lp5579
aa(lp5580
I206
aI112
aI0
a(lp5581
(lp5582
I2
aI1411
aaaa(lp5583
I207
aI113
aI0
a(lp5584
(lp5585
I11
aI454
aaaa(lp5586
I208
aI114
aI0
a(lp5587
(lp5588
I2
aI615
aaaa(lp5589
I209
aI115
aI1
a(lp5590
(lp5591
I8
aI515
aaaa(lp5592
I210
aI116
aI0
a(lp5593
(lp5594
I4
aI556
aaaa(lp5595
I211
aI117
aI0
a(lp5596
(lp5597
I3
aI399
aaaa(lp5598
I212
aI12
aI0
a(lp5599
(lp5600
I7
aI369
aaaa(lp5601
I213
aI13
aI0
a(lp5602
(lp5603
I11
aI230
aaaa(lp5604
I214
aI14
aI0
a(lp5605
(lp5606
I10
aI178
aaaa(lp5607
I215
aI15
aI0
a(lp5608
(lp5609
I3
aI112
aaaa(lp5610
I216
aI16
aI1
a(lp5611
(lp5612
I1
aI373
aaaa(lp5613
I217
aI17
aI0
a(lp5614
(lp5615
I11
aI109
aaaa(lp5616
I218
aI18
aI0
a(lp5617
(lp5618
I4
aI49
aaaa(lp5619
I219
aI19
aI0
a(lp5620
(lp5621
I11
aI1304
aaaa(lp5622
I220
aI20
aI0
a(lp5623
(lp5624
I4
aI54
aaaa(lp5625
I221
aI21
aI0
a(lp5626
(lp5627
I5
aI1170
aaaa(lp5628
I222
aI22
aI0
a(lp5629
(lp5630
I3
aI1212
aaaa(lp5631
I223
aI23
aI1
a(lp5632
(lp5633
I2
aI1276
aaaa(lp5634
I224
aI24
aI0
a(lp5635
(lp5636
I3
aI1196
aaaa(lp5637
I225
aI25
aI1
a(lp5638
(lp5639
I11
aI880
aaaa(lp5640
I226
aI26
aI0
a(lp5641
(lp5642
I9
aI851
aaaa(lp5643
I227
aI27
aI0
a(lp5644
(lp5645
I5
aI670
aaaa(lp5646
I228
aI28
aI0
a(lp5647
(lp5648
I8
aI853
aaaa(lp5649
I229
aI29
aI0
a(lp5650
(lp5651
I5
aI879
aaaa(lp5652
I230
aI30
aI0
a(lp5653
(lp5654
I6
aI753
aaaa(lp5655
I231
aI31
aI0
a(lp5656
(lp5657
I4
aI870
aaaa(lp5658
I232
aI32
aI0
a(lp5659
(lp5660
I11
aI670
aaaa(lp5661
I233
aI33
aI0
a(lp5662
(lp5663
I11
aI440
aaaa(lp5664
I234
aI34
aI0
a(lp5665
(lp5666
I7
aI680
aaaa(lp5667
I235
aI35
aI0
a(lp5668
(lp5669
I7
aI449
aaaa(lp5670
I236
aI36
aI0
a(lp5671
(lp5672
I2
aI584
aaaa(lp5673
I237
aI37
aI0
a(lp5674
(lp5675
I8
aI413
aaaa(lp5676
I238
aI38
aI0
a(lp5677
(lp5678
I3
aI416
aaaa(lp5679
I239
aI39
aI0
a(lp5680
(lp5681
I6
aI412
aaaa(lp5682
I240
aI40
aI0
a(lp5683
(lp5684
I8
aI279
aaaa(lp5685
I241
aI41
aI0
a(lp5686
(lp5687
I10
aI238
aaaa(lp5688
I242
aI42
aI0
a(lp5689
(lp5690
I5
aI189
aaaa(lp5691
I243
aI43
aI0
a(lp5692
(lp5693
I9
aI59
aa(lp5694
I9
aI682
aa(lp5695
I9
aI500
aaaa(lp5696
I244
aI44
aI1
a(lp5697
(lp5698
I11
aI150
aaaa(lp5699
I245
aI45
aI0
a(lp5700
(lp5701
I9
aI210
aaaa(lp5702
I246
aI46
aI0
a(lp5703
(lp5704
I5
aI33
aaaa(lp5705
I247
aI47
aI0
a(lp5706
(lp5707
I7
aI195
aaaa(lp5708
I248
aI48
aI0
a(lp5709
(lp5710
I5
aI1392
aaaa(lp5711
I249
aI49
aI0
a(lp5712
(lp5713
I10
aI1296
aaaa(lp5714
I250
aI50
aI1
a(lp5715
(lp5716
I8
aI1334
aaaa(lp5717
I251
aI51
aI0
a(lp5718
(lp5719
I3
aI1410
aaaa(lp5720
I252
aI52
aI0
a(lp5721
(lp5722
I11
aI1386
aaaa(lp5723
I253
aI53
aI0
a(lp5724
(lp5725
I10
aI373
aaaa(lp5726
I254
aI54
aI0
a(lp5727
(lp5728
I5
aI271
aaaa(lp5729
I255
aI55
aI0
a(lp5730
(lp5731
I4
aI146
aaaa(lp5732
I256
aI56
aI0
a(lp5733
(lp5734
I6
aI163
aaaa(lp5735
I257
aI57
aI0
a(lp5736
(lp5737
I8
aI60
aaaa(lp5738
I258
aI58
aI0
a(lp5739
(lp5740
I2
aI96
aaaa(lp5741
I259
aI59
aI0
a(lp5742
(lp5743
I2
aI865
aaaa(lp5744
I260
aI60
aI0
a(lp5745
(lp5746
I2
aI850
aaaa(lp5747
I261
aI61
aI0
a(lp5748
(lp5749
I6
aI828
aaaa(lp5750
I262
aI62
aI0
a(lp5751
(lp5752
I6
aI952
aaaa(lp5753
I263
aI63
aI0
a(lp5754
(lp5755
I8
aI742
aaaa(lp5756
I264
aI64
aI0
a(lp5757
(lp5758
I6
aI655
aaaa(lp5759
I265
aI65
aI0
a(lp5760
(lp5761
I6
aI484
aaaa(lp5762
I266
aI66
aI0
a(lp5763
(lp5764
I7
aI606
aaaa(lp5765
I267
aI67
aI0
a(lp5766
(lp5767
I3
aI599
aaaa(lp5768
I268
aI68
aI0
a(lp5769
(lp5770
I3
aI391
aaaa(lp5771
I269
aI69
aI0
a(lp5772
(lp5773
I3
aI480
aaaa(lp5774
I270
aI70
aI0
a(lp5775
(lp5776
I9
aI321
aaaa(lp5777
I271
aI71
aI0
a(lp5778
(lp5779
I9
aI563
aaaa(lp5780
I272
aI72
aI0
a(lp5781
(lp5782
I9
aI351
aaaa(lp5783
I273
aI73
aI0
a(lp5784
(lp5785
I5
aI206
aaaa(lp5786
I274
aI74
aI0
a(lp5787
(lp5788
I11
aI125
aaaa(lp5789
I275
aI75
aI0
a(lp5790
(lp5791
I9
aI25
aaaa(lp5792
I276
aI76
aI0
a(lp5793
(lp5794
I7
aI234
aaaa(lp5795
I277
aI77
aI0
a(lp5796
(lp5797
I10
aI181
aaaa(lp5798
I278
aI78
aI0
a(lp5799
(lp5800
I7
aI158
aaaa(lp5801
I279
aI79
aI0
a(lp5802
(lp5803
I2
aI8
aa(lp5804
I2
aI1343
aaaa(lp5805
I280
aI80
aI0
a(lp5806
(lp5807
I10
aI75
aaaa(lp5808
I281
aI81
aI0
a(lp5809
(lp5810
I11
aI737
aa(lp5811
I2
aI559
aaaa(lp5812
I282
aI82
aI0
a(lp5813
(lp5814
I7
aI1215
aaaa(lp5815
I283
aI83
aI0
a(lp5816
(lp5817
I4
aI1085
aaaa(lp5818
I284
aI84
aI0
a(lp5819
(lp5820
I4
aI1220
aaaa(lp5821
I285
aI85
aI0
a(lp5822
(lp5823
I10
aI936
aaaa(lp5824
I286
aI86
aI0
a(lp5825
(lp5826
I6
aI984
aaaa(lp5827
I287
aI87
aI0
a(lp5828
(lp5829
I3
aI978
aaaa(lp5830
I288
aI88
aI0
a(lp5831
(lp5832
I9
aI779
aaaa(lp5833
I289
aI89
aI0
a(lp5834
(lp5835
I10
aI969
aaaa(lp5836
I290
aI90
aI0
a(lp5837
(lp5838
I10
aI954
aaaa(lp5839
I291
aI91
aI0
a(lp5840
(lp5841
I2
aI671
aa(lp5842
I1
aI197
aaaa(lp5843
I292
aI92
aI0
a(lp5844
(lp5845
I5
aI152
aa(lp5846
I3
aI510
aaaa(lp5847
I293
aI93
aI0
a(lp5848
(lp5849
I4
aI769
aaaa(lp5850
I294
aI94
aI0
a(lp5851
(lp5852
I3
aI695
aaaa(lp5853
I295
aI95
aI0
a(lp5854
(lp5855
I6
aI811
aaaa(lp5856
I296
aI96
aI0
a(lp5857
(lp5858
I6
aI443
aaaa(lp5859
I297
aI97
aI0
a(lp5860
(lp5861
I7
aI442
aaaa(lp5862
I298
aI98
aI0
a(lp5863
(lp5864
I4
aI579
aaaa(lp5865
I299
aI99
aI0
a(lp5866
(lp5867
I9
aI629
aaaa(lp5868
I300
aI100
aI0
a(lp5869
(lp5870
I9
aI421
aaaa(lp5871
I301
aI101
aI0
a(lp5872
(lp5873
I9
aI350
aaaa(lp5874
I302
aI102
aI0
a(lp5875
(lp5876
I4
aI264
aaaa(lp5877
I303
aI103
aI0
a(lp5878
(lp5879
I5
aI231
aaaa(lp5880
I304
aI104
aI0
a(lp5881
(lp5882
I8
aI161
aaaa(lp5883
I305
aI105
aI0
a(lp5884
(lp5885
I7
aI216
aaaa(lp5886
I306
aI106
aI0
a(lp5887
(lp5888
I5
aI130
aaaa(lp5889
I307
aI107
aI1
a(lp5890
(lp5891
I8
aI1341
aaaa(lp5892
I308
aI108
aI0
a(lp5893
(lp5894
I6
aI96
aaaa(lp5895
I309
aI109
aI0
a(lp5896
(lp5897
I7
aI1340
aaaa(lp5898
I310
aI110
aI0
a(lp5899
(lp5900
I8
aI98
aaaa(lp5901
I311
aI111
aI0
a(lp5902
(lp5903
I2
aI1247
aaaa(lp5904
I312
aI112
aI1
a(lp5905
(lp5906
I2
aI1127
aaaa(lp5907
I313
aI113
aI0
a(lp5908
(lp5909
I11
aI1009
aaaa(lp5910
I314
aI114
aI0
a(lp5911
(lp5912
I2
aI1346
aaaa(lp5913
I315
aI115
aI1
a(lp5914
(lp5915
I8
aI1141
aaaa(lp5916
I316
aI116
aI0
a(lp5917
(lp5918
I4
aI1220
aaaa(lp5919
I317
aI117
aI0
a(lp5920
(lp5921
I3
aI1055
aaaa(lp5922
I318
aI12
aI0
a(lp5923
(lp5924
I7
aI817
aaaa(lp5925
I319
aI13
aI0
a(lp5926
(lp5927
I11
aI766
aaaa(lp5928
I320
aI14
aI0
a(lp5929
(lp5930
I10
aI786
aaaa(lp5931
I321
aI15
aI0
a(lp5932
(lp5933
I3
aI710
aaaa(lp5934
I322
aI16
aI0
a(lp5935
(lp5936
I6
aI1006
aaaa(lp5937
I323
aI17
aI0
a(lp5938
(lp5939
I11
aI792
aaaa(lp5940
I324
aI18
aI0
a(lp5941
(lp5942
I4
aI563
aaaa(lp5943
I325
aI19
aI0
a(lp5944
(lp5945
I11
aI597
aaaa(lp5946
I326
aI20
aI0
a(lp5947
(lp5948
I4
aI668
aaaa(lp5949
I327
aI21
aI0
a(lp5950
(lp5951
I5
aI432
aaaa(lp5952
I328
aI22
aI0
a(lp5953
(lp5954
I3
aI540
aaaa(lp5955
I329
aI23
aI0
a(lp5956
(lp5957
I2
aI524
aaaa(lp5958
I330
aI24
aI0
a(lp5959
(lp5960
I5
aI569
aaaa(lp5961
I331
aI25
aI0
a(lp5962
(lp5963
I11
aI332
aaaa(lp5964
I332
aI26
aI0
a(lp5965
(lp5966
I9
aI191
aaaa(lp5967
I333
aI27
aI0
a(lp5968
(lp5969
I5
aI34
aaaa(lp5970
I334
aI28
aI1
a(lp5971
(lp5972
I8
aI205
aaaa(lp5973
I335
aI29
aI0
a(lp5974
(lp5975
I3
aI120
aaaa(lp5976
I336
aI30
aI0
a(lp5977
(lp5978
I2
aI159
aaaa(lp5979
I337
aI31
aI0
a(lp5980
(lp5981
I4
aI194
aaaa(lp5982
I338
aI32
aI0
a(lp5983
(lp5984
I11
aI1202
aaaa(lp5985
I339
aI33
aI0
a(lp5986
(lp5987
I11
aI1004
aaaa(lp5988
I340
aI34
aI0
a(lp5989
(lp5990
I7
aI123
aaaa(lp5991
I341
aI35
aI0
a(lp5992
(lp5993
I7
aI1127
aaaa(lp5994
I342
aI36
aI0
a(lp5995
(lp5996
I2
aI1242
aaaa(lp5997
I343
aI37
aI0
a(lp5998
(lp5999
I8
aI1006
aaaa(lp6000
I344
aI38
aI0
a(lp6001
(lp6002
I3
aI1101
aaaa(lp6003
I345
aI39
aI0
a(lp6004
(lp6005
I6
aI1127
aaaa(lp6006
I346
aI40
aI0
a(lp6007
(lp6008
I8
aI808
aaaa(lp6009
I347
aI41
aI0
a(lp6010
(lp6011
I10
aI861
aaaa(lp6012
I348
aI42
aI0
a(lp6013
(lp6014
I5
aI764
aaaa(lp6015
I349
aI43
aI0
a(lp6016
(lp6017
I9
aI596
aaaa(lp6018
I350
aI44
aI0
a(lp6019
(lp6020
I11
aI685
aaaa(lp6021
I351
aI45
aI0
a(lp6022
(lp6023
I9
aI823
aaaa(lp6024
I352
aI46
aI0
a(lp6025
(lp6026
I5
aI772
aaaa(lp6027
I353
aI47
aI0
a(lp6028
(lp6029
I7
aI850
aaaa(lp6030
I354
aI48
aI0
a(lp6031
(lp6032
I5
aI559
aaaa(lp6033
I355
aI49
aI0
a(lp6034
(lp6035
I10
aI578
aaaa(lp6036
I356
aI50
aI0
a(lp6037
(lp6038
I8
aI577
aaaa(lp6039
I357
aI51
aI0
a(lp6040
(lp6041
I3
aI567
aaaa(lp6042
I358
aI52
aI0
a(lp6043
(lp6044
I11
aI687
aaaa(lp6045
I359
aI53
aI0
a(lp6046
(lp6047
I10
aI1245
aaaa(lp6048
I360
aI54
aI0
a(lp6049
(lp6050
I5
aI1228
aaaa(lp6051
I361
aI55
aI0
a(lp6052
(lp6053
I4
aI1024
aaaa(lp6054
I362
aI56
aI0
a(lp6055
(lp6056
I6
aI1150
aaaa(lp6057
I363
aI57
aI0
a(lp6058
(lp6059
I8
aI233
aa(lp6060
I8
aI725
aaaa(lp6061
I364
aI58
aI0
a(lp6062
(lp6063
I2
aI1172
aaaa(lp6064
I365
aI59
aI1
a(lp6065
(lp6066
I2
aI165
aaaa(lp6067
I366
aI60
aI0
a(lp6068
(lp6069
I2
aI244
aaaa(lp6070
I367
aI61
aI0
a(lp6071
(lp6072
I6
aI48
aa(lp6073
I6
aI1388
aaaa(lp6074
I368
aI62
aI0
a(lp6075
(lp6076
I6
aI224
aaaa(lp6077
I369
aI63
aI0
a(lp6078
(lp6079
I5
aI88
aaaa(lp6080
I370
aI64
aI0
a(lp6081
(lp6082
I3
aI8
aaaa(lp6083
I371
aI65
aI0
a(lp6084
(lp6085
I6
aI1074
aaaa(lp6086
I372
aI66
aI0
a(lp6087
(lp6088
I7
aI1172
aaaa(lp6089
I373
aI67
aI0
a(lp6090
(lp6091
I3
aI1219
aaaa(lp6092
I374
aI68
aI0
a(lp6093
(lp6094
I3
aI1090
aaaa(lp6095
I375
aI69
aI0
a(lp6096
(lp6097
I11
aI1164
aaaa(lp6098
I376
aI70
aI0
a(lp6099
(lp6100
I9
aI893
aaaa(lp6101
I377
aI71
aI0
a(lp6102
(lp6103
I2
aI1189
aaaa(lp6104
I378
aI72
aI0
a(lp6105
(lp6106
I9
aI1005
aaaa(lp6107
I379
aI73
aI0
a(lp6108
(lp6109
I5
aI315
aa(lp6110
I10
aI454
aaaa(lp6111
I380
aI74
aI0
a(lp6112
(lp6113
I11
aI786
aaaa(lp6114
I381
aI75
aI0
a(lp6115
(lp6116
I9
aI751
aaaa(lp6117
I382
aI76
aI0
a(lp6118
(lp6119
I7
aI688
aaaa(lp6120
I383
aI77
aI0
a(lp6121
(lp6122
I10
aI735
aaaa(lp6123
I384
aI78
aI1
a(lp6124
(lp6125
I7
aI776
aaaa(lp6126
I385
aI79
aI0
a(lp6127
(lp6128
I2
aI462
aaaa(lp6129
I386
aI80
aI0
a(lp6130
(lp6131
I10
aI666
aaaa(lp6132
I387
aI81
aI0
a(lp6133
(lp6134
I5
aI630
aaaa(lp6135
I388
aI82
aI0
a(lp6136
(lp6137
I7
aI647
aaaa(lp6138
I389
aI83
aI0
a(lp6139
(lp6140
I4
aI377
aaaa(lp6141
I390
aI84
aI0
a(lp6142
(lp6143
I4
aI497
aaaa(lp6144
I391
aI85
aI0
a(lp6145
(lp6146
I10
aI266
aaaa(lp6147
I392
aI86
aI0
a(lp6148
(lp6149
I6
aI321
aa(lp6150
I3
aI32
aaaa(lp6151
I393
aI87
aI0
a(lp6152
(lp6153
I3
aI233
aaaa(lp6154
I394
aI88
aI0
a(lp6155
(lp6156
I9
aI119
aaaa(lp6157
I395
aI89
aI0
a(lp6158
(lp6159
I10
aI233
aaaa(lp6160
I396
aI90
aI0
a(lp6161
(lp6162
I10
aI258
aaaa(lp6163
I397
aI91
aI1
a(lp6164
(lp6165
I1
aI162
aaaa(lp6166
I398
aI92
aI0
a(lp6167
(lp6168
I5
aI1196
aaaa(lp6169
I399
aI93
aI0
a(lp6170
(lp6171
I4
aI44
aaaasg1227
(lp6172
(lp6173
I184548
aI113519
aa(lp6174
I184331
aI141893
aa(lp6175
I179459
aI79312
aa(lp6176
I185891
aI132044
aa(lp6177
I184548
aI128532
aa(lp6178
I178599
aI66358
aa(lp6179
I164206
aI83554
aa(lp6180
I181951
aI85130
aa(lp6181
I162818
aI80820
aa(lp6182
I181151
aI77041
aasg1239
(lp6183
I1636768
aI200024
asg1241
(lp6184
F0.0
aF0.0
aF0.0
aF0.0
aF0.0
aF0.0
aF0.0
aF0.0
aF0.0
aF0.0
aF0.0
aF0.0
aF0.0
aF0.0
aF0.0
aF0.0
aF-0.2857142857142857
aF0.0
aF0.0
aF0.0
aF0.0
aF0.0
aF0.0
aF0.0
aF0.0
aF0.0
aF0.0
aF0.0
aF-0.2857142857142857
aF0.0
aF0.0
aF0.0
aF0.0
aF0.0
aF0.0
aF0.0
aF0.0
aF0.0
aF0.0
aF0.0
aF0.0
aF0.0
aF0.0
aF0.0
aF0.0
aF-0.2857142857142857
aF0.0
aF0.0
aF0.0
aF0.0
aF0.0
aF0.0
aF0.0
aF0.0
aF0.0
aF0.0
aF0.0
aF0.0
aF0.0
aF0.0
aF0.0
aF0.0
aF0.0
aF0.0
aF0.0
aF0.0
aF0.0
aF0.0
aF0.0
aF0.0
aF0.0
aF0.0
aF0.0
aF0.0
aF0.0
aF0.0
aF0.0
aF0.0
aF0.0
aF0.0
aF0.0
aF0.0
aF0.0
aF0.0
aF0.0
aF0.0
aF0.0
aF0.0
aF0.0
aF0.0
aF0.0
aF0.0
aF-0.2857142857142857
aF0.0
aF0.0
aF0.7142857142857143
aF0.0
aF0.0
aF-0.2857142857142857
aF0.0
aF0.0
aF0.0
aF0.0
aF0.7142857142857143
aF0.0
aF0.0
ass.